
user:     formato del fichero elf32-i386


Desensamblado de la sección .text.main:

00100000 <main>:
  100000:	8d 4c 24 04          	lea    0x4(%esp),%ecx
  100004:	83 e4 f0             	and    $0xfffffff0,%esp
  100007:	ff 71 fc             	pushl  -0x4(%ecx)
  10000a:	55                   	push   %ebp
  10000b:	89 e5                	mov    %esp,%ebp
  10000d:	51                   	push   %ecx
  10000e:	83 ec 04             	sub    $0x4,%esp
  100011:	e8 64 06 00 00       	call   10067a <runjp>
  100016:	eb fe                	jmp    100016 <main+0x16>

Desensamblado de la sección .text:

00100020 <itoa>:
  100020:	55                   	push   %ebp
  100021:	89 e5                	mov    %esp,%ebp
  100023:	57                   	push   %edi
  100024:	56                   	push   %esi
  100025:	8b 75 08             	mov    0x8(%ebp),%esi
  100028:	53                   	push   %ebx
  100029:	8b 5d 0c             	mov    0xc(%ebp),%ebx
  10002c:	83 fe 00             	cmp    $0x0,%esi
  10002f:	74 77                	je     1000a8 <itoa+0x88>
  100031:	b9 00 00 00 00       	mov    $0x0,%ecx
  100036:	7e 7c                	jle    1000b4 <itoa+0x94>
  100038:	bf 67 66 66 66       	mov    $0x66666667,%edi
  10003d:	8d 76 00             	lea    0x0(%esi),%esi
  100040:	89 f0                	mov    %esi,%eax
  100042:	f7 ef                	imul   %edi
  100044:	89 f0                	mov    %esi,%eax
  100046:	c1 f8 1f             	sar    $0x1f,%eax
  100049:	c1 fa 02             	sar    $0x2,%edx
  10004c:	29 c2                	sub    %eax,%edx
  10004e:	8d 04 92             	lea    (%edx,%edx,4),%eax
  100051:	01 c0                	add    %eax,%eax
  100053:	29 c6                	sub    %eax,%esi
  100055:	8d 46 30             	lea    0x30(%esi),%eax
  100058:	89 d6                	mov    %edx,%esi
  10005a:	88 04 0b             	mov    %al,(%ebx,%ecx,1)
  10005d:	83 c1 01             	add    $0x1,%ecx
  100060:	85 d2                	test   %edx,%edx
  100062:	75 dc                	jne    100040 <itoa+0x20>
  100064:	89 cf                	mov    %ecx,%edi
  100066:	d1 ff                	sar    %edi
  100068:	74 4e                	je     1000b8 <itoa+0x98>
  10006a:	8d 54 0b ff          	lea    -0x1(%ebx,%ecx,1),%edx
  10006e:	89 d8                	mov    %ebx,%eax
  100070:	89 ce                	mov    %ecx,%esi
  100072:	01 df                	add    %ebx,%edi
  100074:	89 5d 0c             	mov    %ebx,0xc(%ebp)
  100077:	89 f6                	mov    %esi,%esi
  100079:	8d bc 27 00 00 00 00 	lea    0x0(%edi,%eiz,1),%edi
  100080:	0f b6 1a             	movzbl (%edx),%ebx
  100083:	0f b6 08             	movzbl (%eax),%ecx
  100086:	83 c0 01             	add    $0x1,%eax
  100089:	83 ea 01             	sub    $0x1,%edx
  10008c:	88 58 ff             	mov    %bl,-0x1(%eax)
  10008f:	88 4a 01             	mov    %cl,0x1(%edx)
  100092:	39 f8                	cmp    %edi,%eax
  100094:	75 ea                	jne    100080 <itoa+0x60>
  100096:	8b 5d 0c             	mov    0xc(%ebp),%ebx
  100099:	c6 04 33 00          	movb   $0x0,(%ebx,%esi,1)
  10009d:	5b                   	pop    %ebx
  10009e:	5e                   	pop    %esi
  10009f:	5f                   	pop    %edi
  1000a0:	5d                   	pop    %ebp
  1000a1:	c3                   	ret    
  1000a2:	8d b6 00 00 00 00    	lea    0x0(%esi),%esi
  1000a8:	c6 03 30             	movb   $0x30,(%ebx)
  1000ab:	c6 43 01 00          	movb   $0x0,0x1(%ebx)
  1000af:	5b                   	pop    %ebx
  1000b0:	5e                   	pop    %esi
  1000b1:	5f                   	pop    %edi
  1000b2:	5d                   	pop    %ebp
  1000b3:	c3                   	ret    
  1000b4:	31 f6                	xor    %esi,%esi
  1000b6:	eb e1                	jmp    100099 <itoa+0x79>
  1000b8:	be 01 00 00 00       	mov    $0x1,%esi
  1000bd:	eb da                	jmp    100099 <itoa+0x79>
  1000bf:	90                   	nop

001000c0 <strlen>:
  1000c0:	55                   	push   %ebp
  1000c1:	31 c0                	xor    %eax,%eax
  1000c3:	89 e5                	mov    %esp,%ebp
  1000c5:	8b 55 08             	mov    0x8(%ebp),%edx
  1000c8:	80 3a 00             	cmpb   $0x0,(%edx)
  1000cb:	74 0c                	je     1000d9 <strlen+0x19>
  1000cd:	8d 76 00             	lea    0x0(%esi),%esi
  1000d0:	83 c0 01             	add    $0x1,%eax
  1000d3:	80 3c 02 00          	cmpb   $0x0,(%edx,%eax,1)
  1000d7:	75 f7                	jne    1000d0 <strlen+0x10>
  1000d9:	5d                   	pop    %ebp
  1000da:	c3                   	ret    
  1000db:	90                   	nop
  1000dc:	8d 74 26 00          	lea    0x0(%esi,%eiz,1),%esi

001000e0 <gettime>:
  1000e0:	55                   	push   %ebp
  1000e1:	89 e5                	mov    %esp,%ebp
  1000e3:	b8 0a 00 00 00       	mov    $0xa,%eax
  1000e8:	cd 80                	int    $0x80
  1000ea:	89 c2                	mov    %eax,%edx
  1000ec:	85 d2                	test   %edx,%edx
  1000ee:	78 08                	js     1000f8 <gettime+0x18>
  1000f0:	89 d0                	mov    %edx,%eax
  1000f2:	5d                   	pop    %ebp
  1000f3:	c3                   	ret    
  1000f4:	8d 74 26 00          	lea    0x0(%esi,%eiz,1),%esi
  1000f8:	f7 da                	neg    %edx
  1000fa:	b8 ff ff ff ff       	mov    $0xffffffff,%eax
  1000ff:	89 15 c4 a4 10 00    	mov    %edx,0x10a4c4
  100105:	5d                   	pop    %ebp
  100106:	c3                   	ret    
  100107:	89 f6                	mov    %esi,%esi
  100109:	8d bc 27 00 00 00 00 	lea    0x0(%edi,%eiz,1),%edi

00100110 <getpid>:
  100110:	55                   	push   %ebp
  100111:	89 e5                	mov    %esp,%ebp
  100113:	b8 14 00 00 00       	mov    $0x14,%eax
  100118:	cd 80                	int    $0x80
  10011a:	89 c2                	mov    %eax,%edx
  10011c:	85 d2                	test   %edx,%edx
  10011e:	78 08                	js     100128 <getpid+0x18>
  100120:	89 d0                	mov    %edx,%eax
  100122:	5d                   	pop    %ebp
  100123:	c3                   	ret    
  100124:	8d 74 26 00          	lea    0x0(%esi,%eiz,1),%esi
  100128:	f7 da                	neg    %edx
  10012a:	b8 ff ff ff ff       	mov    $0xffffffff,%eax
  10012f:	89 15 c4 a4 10 00    	mov    %edx,0x10a4c4
  100135:	5d                   	pop    %ebp
  100136:	c3                   	ret    
  100137:	89 f6                	mov    %esi,%esi
  100139:	8d bc 27 00 00 00 00 	lea    0x0(%edi,%eiz,1),%edi

00100140 <fork>:
  100140:	55                   	push   %ebp
  100141:	89 e5                	mov    %esp,%ebp
  100143:	b8 02 00 00 00       	mov    $0x2,%eax
  100148:	cd 80                	int    $0x80
  10014a:	89 c2                	mov    %eax,%edx
  10014c:	85 d2                	test   %edx,%edx
  10014e:	78 08                	js     100158 <fork+0x18>
  100150:	89 d0                	mov    %edx,%eax
  100152:	5d                   	pop    %ebp
  100153:	c3                   	ret    
  100154:	8d 74 26 00          	lea    0x0(%esi,%eiz,1),%esi
  100158:	f7 da                	neg    %edx
  10015a:	b8 ff ff ff ff       	mov    $0xffffffff,%eax
  10015f:	89 15 c4 a4 10 00    	mov    %edx,0x10a4c4
  100165:	5d                   	pop    %ebp
  100166:	c3                   	ret    
  100167:	89 f6                	mov    %esi,%esi
  100169:	8d bc 27 00 00 00 00 	lea    0x0(%edi,%eiz,1),%edi

00100170 <write>:
  100170:	55                   	push   %ebp
  100171:	89 e5                	mov    %esp,%ebp
  100173:	53                   	push   %ebx
  100174:	8b 55 10             	mov    0x10(%ebp),%edx
  100177:	8b 4d 0c             	mov    0xc(%ebp),%ecx
  10017a:	8b 5d 08             	mov    0x8(%ebp),%ebx
  10017d:	b8 04 00 00 00       	mov    $0x4,%eax
  100182:	cd 80                	int    $0x80
  100184:	89 c2                	mov    %eax,%edx
  100186:	85 d2                	test   %edx,%edx
  100188:	78 06                	js     100190 <write+0x20>
  10018a:	89 d0                	mov    %edx,%eax
  10018c:	5b                   	pop    %ebx
  10018d:	5d                   	pop    %ebp
  10018e:	c3                   	ret    
  10018f:	90                   	nop
  100190:	f7 da                	neg    %edx
  100192:	b8 ff ff ff ff       	mov    $0xffffffff,%eax
  100197:	89 15 c4 a4 10 00    	mov    %edx,0x10a4c4
  10019d:	eb ed                	jmp    10018c <write+0x1c>
  10019f:	90                   	nop

001001a0 <perror>:
  1001a0:	55                   	push   %ebp
  1001a1:	31 d2                	xor    %edx,%edx
  1001a3:	89 e5                	mov    %esp,%ebp
  1001a5:	53                   	push   %ebx
  1001a6:	8b 4d 08             	mov    0x8(%ebp),%ecx
  1001a9:	80 39 00             	cmpb   $0x0,(%ecx)
  1001ac:	74 0b                	je     1001b9 <perror+0x19>
  1001ae:	66 90                	xchg   %ax,%ax
  1001b0:	83 c2 01             	add    $0x1,%edx
  1001b3:	80 3c 11 00          	cmpb   $0x0,(%ecx,%edx,1)
  1001b7:	75 f7                	jne    1001b0 <perror+0x10>
  1001b9:	bb 01 00 00 00       	mov    $0x1,%ebx
  1001be:	b8 04 00 00 00       	mov    $0x4,%eax
  1001c3:	cd 80                	int    $0x80
  1001c5:	89 c2                	mov    %eax,%edx
  1001c7:	85 d2                	test   %edx,%edx
  1001c9:	79 08                	jns    1001d3 <perror+0x33>
  1001cb:	f7 da                	neg    %edx
  1001cd:	89 15 c4 a4 10 00    	mov    %edx,0x10a4c4
  1001d3:	5b                   	pop    %ebx
  1001d4:	5d                   	pop    %ebp
  1001d5:	c3                   	ret    
  1001d6:	8d 76 00             	lea    0x0(%esi),%esi
  1001d9:	8d bc 27 00 00 00 00 	lea    0x0(%edi,%eiz,1),%edi

001001e0 <get_stats>:
  1001e0:	55                   	push   %ebp
  1001e1:	89 e5                	mov    %esp,%ebp
  1001e3:	53                   	push   %ebx
  1001e4:	8b 4d 0c             	mov    0xc(%ebp),%ecx
  1001e7:	8b 5d 08             	mov    0x8(%ebp),%ebx
  1001ea:	b8 04 00 00 00       	mov    $0x4,%eax
  1001ef:	cd 80                	int    $0x80
  1001f1:	89 c1                	mov    %eax,%ecx
  1001f3:	85 c9                	test   %ecx,%ecx
  1001f5:	78 09                	js     100200 <get_stats+0x20>
  1001f7:	89 c8                	mov    %ecx,%eax
  1001f9:	5b                   	pop    %ebx
  1001fa:	5d                   	pop    %ebp
  1001fb:	c3                   	ret    
  1001fc:	8d 74 26 00          	lea    0x0(%esi,%eiz,1),%esi
  100200:	f7 d9                	neg    %ecx
  100202:	b8 ff ff ff ff       	mov    $0xffffffff,%eax
  100207:	89 0d c4 a4 10 00    	mov    %ecx,0x10a4c4
  10020d:	eb ea                	jmp    1001f9 <get_stats+0x19>
  10020f:	90                   	nop

00100210 <exit>:
  100210:	55                   	push   %ebp
  100211:	89 e5                	mov    %esp,%ebp
  100213:	b8 01 00 00 00       	mov    $0x1,%eax
  100218:	cd 80                	int    $0x80
  10021a:	5d                   	pop    %ebp
  10021b:	c3                   	ret    

0010021c <delay>:
  10021c:	55                   	push   %ebp
  10021d:	89 e5                	mov    %esp,%ebp
  10021f:	83 ec 18             	sub    $0x18,%esp
  100222:	c7 45 f4 00 00 00 00 	movl   $0x0,-0xc(%ebp)
  100229:	83 ec 0c             	sub    $0xc,%esp
  10022c:	6a 0a                	push   $0xa
  10022e:	e8 3b 52 00 00       	call   10546e <zeos_nice>
  100233:	83 c4 10             	add    $0x10,%esp
  100236:	89 45 f0             	mov    %eax,-0x10(%ebp)
  100239:	83 ec 0c             	sub    $0xc,%esp
  10023c:	ff 75 f0             	pushl  -0x10(%ebp)
  10023f:	e8 2a 52 00 00       	call   10546e <zeos_nice>
  100244:	83 c4 10             	add    $0x10,%esp
  100247:	85 c0                	test   %eax,%eax
  100249:	79 23                	jns    10026e <delay+0x52>
  10024b:	83 ec 0c             	sub    $0xc,%esp
  10024e:	68 00 80 10 00       	push   $0x108000
  100253:	e8 33 49 00 00       	call   104b8b <proso_strlen>
  100258:	83 c4 10             	add    $0x10,%esp
  10025b:	83 ec 04             	sub    $0x4,%esp
  10025e:	50                   	push   %eax
  10025f:	68 00 80 10 00       	push   $0x108000
  100264:	6a 01                	push   $0x1
  100266:	e8 05 ff ff ff       	call   100170 <write>
  10026b:	83 c4 10             	add    $0x10,%esp
  10026e:	eb 04                	jmp    100274 <delay+0x58>
  100270:	83 45 f4 01          	addl   $0x1,-0xc(%ebp)
  100274:	8b 45 f0             	mov    -0x10(%ebp),%eax
  100277:	69 c0 a8 61 00 00    	imul   $0x61a8,%eax,%eax
  10027d:	3b 45 f4             	cmp    -0xc(%ebp),%eax
  100280:	7f ee                	jg     100270 <delay+0x54>
  100282:	c9                   	leave  
  100283:	c3                   	ret    

00100284 <qtdelay>:
  100284:	55                   	push   %ebp
  100285:	89 e5                	mov    %esp,%ebp
  100287:	83 ec 10             	sub    $0x10,%esp
  10028a:	c7 45 fc 00 00 00 00 	movl   $0x0,-0x4(%ebp)
  100291:	8b 45 08             	mov    0x8(%ebp),%eax
  100294:	69 c0 a8 61 00 00    	imul   $0x61a8,%eax,%eax
  10029a:	89 45 f8             	mov    %eax,-0x8(%ebp)
  10029d:	eb 04                	jmp    1002a3 <qtdelay+0x1f>
  10029f:	83 45 fc 01          	addl   $0x1,-0x4(%ebp)
  1002a3:	8b 45 fc             	mov    -0x4(%ebp),%eax
  1002a6:	3b 45 f8             	cmp    -0x8(%ebp),%eax
  1002a9:	7c f4                	jl     10029f <qtdelay+0x1b>
  1002ab:	c9                   	leave  
  1002ac:	c3                   	ret    

001002ad <init_deliver2>:
  1002ad:	55                   	push   %ebp
  1002ae:	89 e5                	mov    %esp,%ebp
  1002b0:	83 ec 08             	sub    $0x8,%esp
  1002b3:	83 ec 08             	sub    $0x8,%esp
  1002b6:	68 33 07 10 00       	push   $0x100733
  1002bb:	6a 00                	push   $0x0
  1002bd:	6a 00                	push   $0x0
  1002bf:	6a 46                	push   $0x46
  1002c1:	68 31 80 10 00       	push   $0x108031
  1002c6:	ff 75 08             	pushl  0x8(%ebp)
  1002c9:	e8 34 40 00 00       	call   104302 <jpstats_add>
  1002ce:	83 c4 20             	add    $0x20,%esp
  1002d1:	83 ec 08             	sub    $0x8,%esp
  1002d4:	68 52 07 10 00       	push   $0x100752
  1002d9:	6a 00                	push   $0x0
  1002db:	6a 70                	push   $0x70
  1002dd:	6a 6e                	push   $0x6e
  1002df:	68 4c 80 10 00       	push   $0x10804c
  1002e4:	ff 75 08             	pushl  0x8(%ebp)
  1002e7:	e8 16 40 00 00       	call   104302 <jpstats_add>
  1002ec:	83 c4 20             	add    $0x20,%esp
  1002ef:	83 ec 08             	sub    $0x8,%esp
  1002f2:	68 8b 0a 10 00       	push   $0x100a8b
  1002f7:	6a 00                	push   $0x0
  1002f9:	6a 02                	push   $0x2
  1002fb:	6a 28                	push   $0x28
  1002fd:	68 80 80 10 00       	push   $0x108080
  100302:	ff 75 08             	pushl  0x8(%ebp)
  100305:	e8 f8 3f 00 00       	call   104302 <jpstats_add>
  10030a:	83 c4 20             	add    $0x20,%esp
  10030d:	83 ec 08             	sub    $0x8,%esp
  100310:	68 62 11 10 00       	push   $0x101162
  100315:	6a 00                	push   $0x0
  100317:	6a 03                	push   $0x3
  100319:	6a 3c                	push   $0x3c
  10031b:	68 a0 80 10 00       	push   $0x1080a0
  100320:	ff 75 08             	pushl  0x8(%ebp)
  100323:	e8 da 3f 00 00       	call   104302 <jpstats_add>
  100328:	83 c4 20             	add    $0x20,%esp
  10032b:	83 ec 08             	sub    $0x8,%esp
  10032e:	68 57 1f 10 00       	push   $0x101f57
  100333:	6a 00                	push   $0x0
  100335:	6a 03                	push   $0x3
  100337:	6a 3c                	push   $0x3c
  100339:	68 d8 80 10 00       	push   $0x1080d8
  10033e:	ff 75 08             	pushl  0x8(%ebp)
  100341:	e8 bc 3f 00 00       	call   104302 <jpstats_add>
  100346:	83 c4 20             	add    $0x20,%esp
  100349:	83 ec 08             	sub    $0x8,%esp
  10034c:	68 6d 26 10 00       	push   $0x10266d
  100351:	6a 00                	push   $0x0
  100353:	6a 03                	push   $0x3
  100355:	6a 3c                	push   $0x3c
  100357:	68 0c 81 10 00       	push   $0x10810c
  10035c:	ff 75 08             	pushl  0x8(%ebp)
  10035f:	e8 9e 3f 00 00       	call   104302 <jpstats_add>
  100364:	83 c4 20             	add    $0x20,%esp
  100367:	83 ec 08             	sub    $0x8,%esp
  10036a:	68 03 14 10 00       	push   $0x101403
  10036f:	6a 00                	push   $0x0
  100371:	6a 09                	push   $0x9
  100373:	6a 3c                	push   $0x3c
  100375:	68 58 81 10 00       	push   $0x108158
  10037a:	ff 75 08             	pushl  0x8(%ebp)
  10037d:	e8 80 3f 00 00       	call   104302 <jpstats_add>
  100382:	83 c4 20             	add    $0x20,%esp
  100385:	83 ec 08             	sub    $0x8,%esp
  100388:	68 60 14 10 00       	push   $0x101460
  10038d:	6a 00                	push   $0x0
  10038f:	6a 00                	push   $0x0
  100391:	6a 1e                	push   $0x1e
  100393:	68 b4 81 10 00       	push   $0x1081b4
  100398:	ff 75 08             	pushl  0x8(%ebp)
  10039b:	e8 62 3f 00 00       	call   104302 <jpstats_add>
  1003a0:	83 c4 20             	add    $0x20,%esp
  1003a3:	83 ec 08             	sub    $0x8,%esp
  1003a6:	68 0a 15 10 00       	push   $0x10150a
  1003ab:	6a 00                	push   $0x0
  1003ad:	6a 01                	push   $0x1
  1003af:	6a 1e                	push   $0x1e
  1003b1:	68 e0 81 10 00       	push   $0x1081e0
  1003b6:	ff 75 08             	pushl  0x8(%ebp)
  1003b9:	e8 44 3f 00 00       	call   104302 <jpstats_add>
  1003be:	83 c4 20             	add    $0x20,%esp
  1003c1:	83 ec 08             	sub    $0x8,%esp
  1003c4:	68 f6 15 10 00       	push   $0x1015f6
  1003c9:	6a 00                	push   $0x0
  1003cb:	6a 02                	push   $0x2
  1003cd:	6a 1e                	push   $0x1e
  1003cf:	68 08 82 10 00       	push   $0x108208
  1003d4:	ff 75 08             	pushl  0x8(%ebp)
  1003d7:	e8 26 3f 00 00       	call   104302 <jpstats_add>
  1003dc:	83 c4 20             	add    $0x20,%esp
  1003df:	83 ec 08             	sub    $0x8,%esp
  1003e2:	68 84 17 10 00       	push   $0x101784
  1003e7:	6a 00                	push   $0x0
  1003e9:	6a 03                	push   $0x3
  1003eb:	6a 1e                	push   $0x1e
  1003ed:	68 38 82 10 00       	push   $0x108238
  1003f2:	ff 75 08             	pushl  0x8(%ebp)
  1003f5:	e8 08 3f 00 00       	call   104302 <jpstats_add>
  1003fa:	83 c4 20             	add    $0x20,%esp
  1003fd:	83 ec 08             	sub    $0x8,%esp
  100400:	68 41 12 10 00       	push   $0x101241
  100405:	6a 00                	push   $0x0
  100407:	6a 08                	push   $0x8
  100409:	6a 3c                	push   $0x3c
  10040b:	68 60 82 10 00       	push   $0x108260
  100410:	ff 75 08             	pushl  0x8(%ebp)
  100413:	e8 ea 3e 00 00       	call   104302 <jpstats_add>
  100418:	83 c4 20             	add    $0x20,%esp
  10041b:	83 ec 08             	sub    $0x8,%esp
  10041e:	68 68 31 10 00       	push   $0x103168
  100423:	6a 00                	push   $0x0
  100425:	6a 03                	push   $0x3
  100427:	6a 28                	push   $0x28
  100429:	68 b0 82 10 00       	push   $0x1082b0
  10042e:	ff 75 08             	pushl  0x8(%ebp)
  100431:	e8 cc 3e 00 00       	call   104302 <jpstats_add>
  100436:	83 c4 20             	add    $0x20,%esp
  100439:	83 ec 08             	sub    $0x8,%esp
  10043c:	68 69 39 10 00       	push   $0x103969
  100441:	6a 00                	push   $0x0
  100443:	6a 07                	push   $0x7
  100445:	6a 1e                	push   $0x1e
  100447:	68 e4 82 10 00       	push   $0x1082e4
  10044c:	ff 75 08             	pushl  0x8(%ebp)
  10044f:	e8 ae 3e 00 00       	call   104302 <jpstats_add>
  100454:	83 c4 20             	add    $0x20,%esp
  100457:	83 ec 08             	sub    $0x8,%esp
  10045a:	68 b3 3a 10 00       	push   $0x103ab3
  10045f:	6a 00                	push   $0x0
  100461:	6a 08                	push   $0x8
  100463:	6a 1e                	push   $0x1e
  100465:	68 34 83 10 00       	push   $0x108334
  10046a:	ff 75 08             	pushl  0x8(%ebp)
  10046d:	e8 90 3e 00 00       	call   104302 <jpstats_add>
  100472:	83 c4 20             	add    $0x20,%esp
  100475:	83 ec 08             	sub    $0x8,%esp
  100478:	68 4f 3d 10 00       	push   $0x103d4f
  10047d:	6a 00                	push   $0x0
  10047f:	6a 09                	push   $0x9
  100481:	6a 1e                	push   $0x1e
  100483:	68 84 83 10 00       	push   $0x108384
  100488:	ff 75 08             	pushl  0x8(%ebp)
  10048b:	e8 72 3e 00 00       	call   104302 <jpstats_add>
  100490:	83 c4 20             	add    $0x20,%esp
  100493:	83 ec 08             	sub    $0x8,%esp
  100496:	68 73 3f 10 00       	push   $0x103f73
  10049b:	6a 00                	push   $0x0
  10049d:	6a 02                	push   $0x2
  10049f:	6a 32                	push   $0x32
  1004a1:	68 b8 83 10 00       	push   $0x1083b8
  1004a6:	ff 75 08             	pushl  0x8(%ebp)
  1004a9:	e8 54 3e 00 00       	call   104302 <jpstats_add>
  1004ae:	83 c4 20             	add    $0x20,%esp
  1004b1:	83 ec 08             	sub    $0x8,%esp
  1004b4:	68 d5 35 10 00       	push   $0x1035d5
  1004b9:	6a 00                	push   $0x0
  1004bb:	6a 01                	push   $0x1
  1004bd:	6a 32                	push   $0x32
  1004bf:	68 e8 83 10 00       	push   $0x1083e8
  1004c4:	ff 75 08             	pushl  0x8(%ebp)
  1004c7:	e8 36 3e 00 00       	call   104302 <jpstats_add>
  1004cc:	83 c4 20             	add    $0x20,%esp
  1004cf:	83 ec 08             	sub    $0x8,%esp
  1004d2:	68 d7 36 10 00       	push   $0x1036d7
  1004d7:	6a 00                	push   $0x0
  1004d9:	6a 05                	push   $0x5
  1004db:	6a 1e                	push   $0x1e
  1004dd:	68 08 84 10 00       	push   $0x108408
  1004e2:	ff 75 08             	pushl  0x8(%ebp)
  1004e5:	e8 18 3e 00 00       	call   104302 <jpstats_add>
  1004ea:	83 c4 20             	add    $0x20,%esp
  1004ed:	83 ec 08             	sub    $0x8,%esp
  1004f0:	68 34 38 10 00       	push   $0x103834
  1004f5:	6a 00                	push   $0x0
  1004f7:	6a 06                	push   $0x6
  1004f9:	6a 1e                	push   $0x1e
  1004fb:	68 3c 84 10 00       	push   $0x10843c
  100500:	ff 75 08             	pushl  0x8(%ebp)
  100503:	e8 fa 3d 00 00       	call   104302 <jpstats_add>
  100508:	83 c4 20             	add    $0x20,%esp
  10050b:	83 ec 08             	sub    $0x8,%esp
  10050e:	68 53 2b 10 00       	push   $0x102b53
  100513:	6a 02                	push   $0x2
  100515:	6a 01                	push   $0x1
  100517:	6a 64                	push   $0x64
  100519:	68 78 84 10 00       	push   $0x108478
  10051e:	ff 75 08             	pushl  0x8(%ebp)
  100521:	e8 dc 3d 00 00       	call   104302 <jpstats_add>
  100526:	83 c4 20             	add    $0x20,%esp
  100529:	83 ec 08             	sub    $0x8,%esp
  10052c:	68 cd 2c 10 00       	push   $0x102ccd
  100531:	6a 00                	push   $0x0
  100533:	6a 00                	push   $0x0
  100535:	6a 64                	push   $0x64
  100537:	68 b4 84 10 00       	push   $0x1084b4
  10053c:	ff 75 08             	pushl  0x8(%ebp)
  10053f:	e8 be 3d 00 00       	call   104302 <jpstats_add>
  100544:	83 c4 20             	add    $0x20,%esp
  100547:	83 ec 08             	sub    $0x8,%esp
  10054a:	68 c7 26 10 00       	push   $0x1026c7
  10054f:	6a 00                	push   $0x0
  100551:	6a 07                	push   $0x7
  100553:	6a 3c                	push   $0x3c
  100555:	68 dc 84 10 00       	push   $0x1084dc
  10055a:	ff 75 08             	pushl  0x8(%ebp)
  10055d:	e8 a0 3d 00 00       	call   104302 <jpstats_add>
  100562:	83 c4 20             	add    $0x20,%esp
  100565:	83 ec 08             	sub    $0x8,%esp
  100568:	68 7c 0b 10 00       	push   $0x100b7c
  10056d:	6a 00                	push   $0x0
  10056f:	6a 00                	push   $0x0
  100571:	6a 3c                	push   $0x3c
  100573:	68 2c 85 10 00       	push   $0x10852c
  100578:	ff 75 08             	pushl  0x8(%ebp)
  10057b:	e8 82 3d 00 00       	call   104302 <jpstats_add>
  100580:	83 c4 20             	add    $0x20,%esp
  100583:	83 ec 08             	sub    $0x8,%esp
  100586:	68 a7 0c 10 00       	push   $0x100ca7
  10058b:	6a 00                	push   $0x0
  10058d:	6a 01                	push   $0x1
  10058f:	6a 3c                	push   $0x3c
  100591:	68 6c 85 10 00       	push   $0x10856c
  100596:	ff 75 08             	pushl  0x8(%ebp)
  100599:	e8 64 3d 00 00       	call   104302 <jpstats_add>
  10059e:	83 c4 20             	add    $0x20,%esp
  1005a1:	83 ec 08             	sub    $0x8,%esp
  1005a4:	68 bc 1a 10 00       	push   $0x101abc
  1005a9:	6a 00                	push   $0x0
  1005ab:	6a 04                	push   $0x4
  1005ad:	6a 3c                	push   $0x3c
  1005af:	68 b0 85 10 00       	push   $0x1085b0
  1005b4:	ff 75 08             	pushl  0x8(%ebp)
  1005b7:	e8 46 3d 00 00       	call   104302 <jpstats_add>
  1005bc:	83 c4 20             	add    $0x20,%esp
  1005bf:	83 ec 08             	sub    $0x8,%esp
  1005c2:	68 02 1e 10 00       	push   $0x101e02
  1005c7:	6a 00                	push   $0x0
  1005c9:	6a 05                	push   $0x5
  1005cb:	6a 3c                	push   $0x3c
  1005cd:	68 e0 85 10 00       	push   $0x1085e0
  1005d2:	ff 75 08             	pushl  0x8(%ebp)
  1005d5:	e8 28 3d 00 00       	call   104302 <jpstats_add>
  1005da:	83 c4 20             	add    $0x20,%esp
  1005dd:	83 ec 08             	sub    $0x8,%esp
  1005e0:	68 6b 1c 10 00       	push   $0x101c6b
  1005e5:	6a 00                	push   $0x0
  1005e7:	6a 06                	push   $0x6
  1005e9:	6a 3c                	push   $0x3c
  1005eb:	68 14 86 10 00       	push   $0x108614
  1005f0:	ff 75 08             	pushl  0x8(%ebp)
  1005f3:	e8 0a 3d 00 00       	call   104302 <jpstats_add>
  1005f8:	83 c4 20             	add    $0x20,%esp
  1005fb:	83 ec 08             	sub    $0x8,%esp
  1005fe:	68 d5 0d 10 00       	push   $0x100dd5
  100603:	6a 00                	push   $0x0
  100605:	6a 02                	push   $0x2
  100607:	6a 3c                	push   $0x3c
  100609:	68 44 86 10 00       	push   $0x108644
  10060e:	ff 75 08             	pushl  0x8(%ebp)
  100611:	e8 ec 3c 00 00       	call   104302 <jpstats_add>
  100616:	83 c4 20             	add    $0x20,%esp
  100619:	83 ec 08             	sub    $0x8,%esp
  10061c:	68 02 0f 10 00       	push   $0x100f02
  100621:	6a 00                	push   $0x0
  100623:	6a 15                	push   $0x15
  100625:	6a 3c                	push   $0x3c
  100627:	68 88 86 10 00       	push   $0x108688
  10062c:	ff 75 08             	pushl  0x8(%ebp)
  10062f:	e8 ce 3c 00 00       	call   104302 <jpstats_add>
  100634:	83 c4 20             	add    $0x20,%esp
  100637:	83 ec 08             	sub    $0x8,%esp
  10063a:	68 32 10 10 00       	push   $0x101032
  10063f:	6a 00                	push   $0x0
  100641:	6a 16                	push   $0x16
  100643:	6a 3c                	push   $0x3c
  100645:	68 dc 86 10 00       	push   $0x1086dc
  10064a:	ff 75 08             	pushl  0x8(%ebp)
  10064d:	e8 b0 3c 00 00       	call   104302 <jpstats_add>
  100652:	83 c4 20             	add    $0x20,%esp
  100655:	83 ec 08             	sub    $0x8,%esp
  100658:	68 ea 29 10 00       	push   $0x1029ea
  10065d:	6a 00                	push   $0x0
  10065f:	6a 04                	push   $0x4
  100661:	6a 1e                	push   $0x1e
  100663:	68 34 87 10 00       	push   $0x108734
  100668:	ff 75 08             	pushl  0x8(%ebp)
  10066b:	e8 92 3c 00 00       	call   104302 <jpstats_add>
  100670:	83 c4 20             	add    $0x20,%esp
  100673:	b8 00 00 00 00       	mov    $0x0,%eax
  100678:	c9                   	leave  
  100679:	c3                   	ret    

0010067a <runjp>:
  10067a:	55                   	push   %ebp
  10067b:	89 e5                	mov    %esp,%ebp
  10067d:	83 ec 18             	sub    $0x18,%esp
  100680:	83 ec 08             	sub    $0x8,%esp
  100683:	68 7c 87 10 00       	push   $0x10877c
  100688:	68 00 a5 10 00       	push   $0x10a500
  10068d:	e8 ff 39 00 00       	call   104091 <jpstats_init>
  100692:	83 c4 10             	add    $0x10,%esp
  100695:	89 45 f4             	mov    %eax,-0xc(%ebp)
  100698:	83 7d f4 00          	cmpl   $0x0,-0xc(%ebp)
  10069c:	79 05                	jns    1006a3 <runjp+0x29>
  10069e:	8b 45 f4             	mov    -0xc(%ebp),%eax
  1006a1:	eb 30                	jmp    1006d3 <runjp+0x59>
  1006a3:	83 ec 0c             	sub    $0xc,%esp
  1006a6:	68 00 a5 10 00       	push   $0x10a500
  1006ab:	e8 fd fb ff ff       	call   1002ad <init_deliver2>
  1006b0:	83 c4 10             	add    $0x10,%esp
  1006b3:	83 ec 0c             	sub    $0xc,%esp
  1006b6:	68 00 a5 10 00       	push   $0x10a500
  1006bb:	e8 9f 3a 00 00       	call   10415f <jpstats_run>
  1006c0:	83 c4 10             	add    $0x10,%esp
  1006c3:	83 ec 0c             	sub    $0xc,%esp
  1006c6:	68 00 a5 10 00       	push   $0x10a500
  1006cb:	e8 7a 41 00 00       	call   10484a <jpstats_results>
  1006d0:	83 c4 10             	add    $0x10,%esp
  1006d3:	c9                   	leave  
  1006d4:	c3                   	ret    

001006d5 <runjp_rank>:
  1006d5:	55                   	push   %ebp
  1006d6:	89 e5                	mov    %esp,%ebp
  1006d8:	83 ec 18             	sub    $0x18,%esp
  1006db:	ff 75 0c             	pushl  0xc(%ebp)
  1006de:	ff 75 08             	pushl  0x8(%ebp)
  1006e1:	68 7c 87 10 00       	push   $0x10877c
  1006e6:	68 00 a5 10 00       	push   $0x10a500
  1006eb:	e8 09 3a 00 00       	call   1040f9 <jpstats_init_rank>
  1006f0:	83 c4 10             	add    $0x10,%esp
  1006f3:	89 45 f4             	mov    %eax,-0xc(%ebp)
  1006f6:	83 7d f4 00          	cmpl   $0x0,-0xc(%ebp)
  1006fa:	79 05                	jns    100701 <runjp_rank+0x2c>
  1006fc:	8b 45 f4             	mov    -0xc(%ebp),%eax
  1006ff:	eb 30                	jmp    100731 <runjp_rank+0x5c>
  100701:	83 ec 0c             	sub    $0xc,%esp
  100704:	68 00 a5 10 00       	push   $0x10a500
  100709:	e8 9f fb ff ff       	call   1002ad <init_deliver2>
  10070e:	83 c4 10             	add    $0x10,%esp
  100711:	83 ec 0c             	sub    $0xc,%esp
  100714:	68 00 a5 10 00       	push   $0x10a500
  100719:	e8 41 3a 00 00       	call   10415f <jpstats_run>
  10071e:	83 c4 10             	add    $0x10,%esp
  100721:	83 ec 0c             	sub    $0xc,%esp
  100724:	68 00 a5 10 00       	push   $0x10a500
  100729:	e8 1c 41 00 00       	call   10484a <jpstats_results>
  10072e:	83 c4 10             	add    $0x10,%esp
  100731:	c9                   	leave  
  100732:	c3                   	ret    

00100733 <testGetPID>:
  100733:	55                   	push   %ebp
  100734:	89 e5                	mov    %esp,%ebp
  100736:	83 ec 08             	sub    $0x8,%esp
  100739:	e8 d2 f9 ff ff       	call   100110 <getpid>
  10073e:	83 f8 01             	cmp    $0x1,%eax
  100741:	74 0d                	je     100750 <testGetPID+0x1d>
  100743:	8b 45 08             	mov    0x8(%ebp),%eax
  100746:	c7 80 88 00 00 00 02 	movl   $0x2,0x88(%eax)
  10074d:	00 00 00 
  100750:	c9                   	leave  
  100751:	c3                   	ret    

00100752 <testMemP0>:
  100752:	55                   	push   %ebp
  100753:	89 e5                	mov    %esp,%ebp
  100755:	83 ec 18             	sub    $0x18,%esp
  100758:	c7 45 f4 9f 86 01 00 	movl   $0x1869f,-0xc(%ebp)
  10075f:	e8 dc f9 ff ff       	call   100140 <fork>
  100764:	89 45 f0             	mov    %eax,-0x10(%ebp)
  100767:	83 7d f0 00          	cmpl   $0x0,-0x10(%ebp)
  10076b:	79 4b                	jns    1007b8 <testMemP0+0x66>
  10076d:	8b 45 08             	mov    0x8(%ebp),%eax
  100770:	c7 80 88 00 00 00 02 	movl   $0x2,0x88(%eax)
  100777:	00 00 00 
  10077a:	8b 45 08             	mov    0x8(%ebp),%eax
  10077d:	c7 80 8c 00 00 00 88 	movl   $0x108788,0x8c(%eax)
  100784:	87 10 00 
  100787:	8b 45 08             	mov    0x8(%ebp),%eax
  10078a:	8b 80 8c 00 00 00    	mov    0x8c(%eax),%eax
  100790:	83 ec 0c             	sub    $0xc,%esp
  100793:	50                   	push   %eax
  100794:	e8 f2 43 00 00       	call   104b8b <proso_strlen>
  100799:	83 c4 10             	add    $0x10,%esp
  10079c:	89 c2                	mov    %eax,%edx
  10079e:	8b 45 08             	mov    0x8(%ebp),%eax
  1007a1:	8b 80 8c 00 00 00    	mov    0x8c(%eax),%eax
  1007a7:	83 ec 04             	sub    $0x4,%esp
  1007aa:	52                   	push   %edx
  1007ab:	50                   	push   %eax
  1007ac:	6a 01                	push   $0x1
  1007ae:	e8 bd f9 ff ff       	call   100170 <write>
  1007b3:	83 c4 10             	add    $0x10,%esp
  1007b6:	eb 60                	jmp    100818 <testMemP0+0xc6>
  1007b8:	83 7d f0 00          	cmpl   $0x0,-0x10(%ebp)
  1007bc:	75 05                	jne    1007c3 <testMemP0+0x71>
  1007be:	e8 4d fa ff ff       	call   100210 <exit>
  1007c3:	83 7d f0 00          	cmpl   $0x0,-0x10(%ebp)
  1007c7:	7e 4f                	jle    100818 <testMemP0+0xc6>
  1007c9:	e8 4e fa ff ff       	call   10021c <delay>
  1007ce:	81 7d f4 9f 86 01 00 	cmpl   $0x1869f,-0xc(%ebp)
  1007d5:	74 41                	je     100818 <testMemP0+0xc6>
  1007d7:	e8 c4 f9 ff ff       	call   1001a0 <perror>
  1007dc:	8b 45 08             	mov    0x8(%ebp),%eax
  1007df:	c7 80 8c 00 00 00 b4 	movl   $0x1087b4,0x8c(%eax)
  1007e6:	87 10 00 
  1007e9:	8b 45 08             	mov    0x8(%ebp),%eax
  1007ec:	8b 80 8c 00 00 00    	mov    0x8c(%eax),%eax
  1007f2:	83 ec 0c             	sub    $0xc,%esp
  1007f5:	50                   	push   %eax
  1007f6:	e8 90 43 00 00       	call   104b8b <proso_strlen>
  1007fb:	83 c4 10             	add    $0x10,%esp
  1007fe:	89 c2                	mov    %eax,%edx
  100800:	8b 45 08             	mov    0x8(%ebp),%eax
  100803:	8b 80 8c 00 00 00    	mov    0x8c(%eax),%eax
  100809:	83 ec 04             	sub    $0x4,%esp
  10080c:	52                   	push   %edx
  10080d:	50                   	push   %eax
  10080e:	6a 01                	push   $0x1
  100810:	e8 5b f9 ff ff       	call   100170 <write>
  100815:	83 c4 10             	add    $0x10,%esp
  100818:	c9                   	leave  
  100819:	c3                   	ret    

0010081a <testNiceParInv>:
  10081a:	55                   	push   %ebp
  10081b:	89 e5                	mov    %esp,%ebp
  10081d:	83 ec 18             	sub    $0x18,%esp
  100820:	83 ec 0c             	sub    $0xc,%esp
  100823:	6a ff                	push   $0xffffffff
  100825:	e8 44 4c 00 00       	call   10546e <zeos_nice>
  10082a:	83 c4 10             	add    $0x10,%esp
  10082d:	89 45 f4             	mov    %eax,-0xc(%ebp)
  100830:	83 7d f4 00          	cmpl   $0x0,-0xc(%ebp)
  100834:	0f 89 cf 00 00 00    	jns    100909 <testNiceParInv+0xef>
  10083a:	83 7d f4 ff          	cmpl   $0xffffffff,-0xc(%ebp)
  10083e:	75 1c                	jne    10085c <testNiceParInv+0x42>
  100840:	a1 c4 a4 10 00       	mov    0x10a4c4,%eax
  100845:	83 f8 16             	cmp    $0x16,%eax
  100848:	75 12                	jne    10085c <testNiceParInv+0x42>
  10084a:	8b 45 08             	mov    0x8(%ebp),%eax
  10084d:	c7 80 88 00 00 00 00 	movl   $0x0,0x88(%eax)
  100854:	00 00 00 
  100857:	e9 ab 00 00 00       	jmp    100907 <testNiceParInv+0xed>
  10085c:	83 7d f4 ff          	cmpl   $0xffffffff,-0xc(%ebp)
  100860:	75 5a                	jne    1008bc <testNiceParInv+0xa2>
  100862:	a1 c4 a4 10 00       	mov    0x10a4c4,%eax
  100867:	83 f8 16             	cmp    $0x16,%eax
  10086a:	74 50                	je     1008bc <testNiceParInv+0xa2>
  10086c:	8b 45 08             	mov    0x8(%ebp),%eax
  10086f:	c7 80 88 00 00 00 01 	movl   $0x1,0x88(%eax)
  100876:	00 00 00 
  100879:	e8 22 f9 ff ff       	call   1001a0 <perror>
  10087e:	8b 45 08             	mov    0x8(%ebp),%eax
  100881:	c7 80 8c 00 00 00 f8 	movl   $0x1087f8,0x8c(%eax)
  100888:	87 10 00 
  10088b:	8b 45 08             	mov    0x8(%ebp),%eax
  10088e:	8b 80 8c 00 00 00    	mov    0x8c(%eax),%eax
  100894:	83 ec 0c             	sub    $0xc,%esp
  100897:	50                   	push   %eax
  100898:	e8 ee 42 00 00       	call   104b8b <proso_strlen>
  10089d:	83 c4 10             	add    $0x10,%esp
  1008a0:	89 c2                	mov    %eax,%edx
  1008a2:	8b 45 08             	mov    0x8(%ebp),%eax
  1008a5:	8b 80 8c 00 00 00    	mov    0x8c(%eax),%eax
  1008ab:	83 ec 04             	sub    $0x4,%esp
  1008ae:	52                   	push   %edx
  1008af:	50                   	push   %eax
  1008b0:	6a 01                	push   $0x1
  1008b2:	e8 b9 f8 ff ff       	call   100170 <write>
  1008b7:	83 c4 10             	add    $0x10,%esp
  1008ba:	eb 4b                	jmp    100907 <testNiceParInv+0xed>
  1008bc:	8b 45 08             	mov    0x8(%ebp),%eax
  1008bf:	c7 80 88 00 00 00 02 	movl   $0x2,0x88(%eax)
  1008c6:	00 00 00 
  1008c9:	8b 45 08             	mov    0x8(%ebp),%eax
  1008cc:	c7 80 8c 00 00 00 44 	movl   $0x108844,0x8c(%eax)
  1008d3:	88 10 00 
  1008d6:	8b 45 08             	mov    0x8(%ebp),%eax
  1008d9:	8b 80 8c 00 00 00    	mov    0x8c(%eax),%eax
  1008df:	83 ec 0c             	sub    $0xc,%esp
  1008e2:	50                   	push   %eax
  1008e3:	e8 a3 42 00 00       	call   104b8b <proso_strlen>
  1008e8:	83 c4 10             	add    $0x10,%esp
  1008eb:	89 c2                	mov    %eax,%edx
  1008ed:	8b 45 08             	mov    0x8(%ebp),%eax
  1008f0:	8b 80 8c 00 00 00    	mov    0x8c(%eax),%eax
  1008f6:	83 ec 04             	sub    $0x4,%esp
  1008f9:	52                   	push   %edx
  1008fa:	50                   	push   %eax
  1008fb:	6a 01                	push   $0x1
  1008fd:	e8 6e f8 ff ff       	call   100170 <write>
  100902:	83 c4 10             	add    $0x10,%esp
  100905:	eb 4b                	jmp    100952 <testNiceParInv+0x138>
  100907:	eb 49                	jmp    100952 <testNiceParInv+0x138>
  100909:	8b 45 08             	mov    0x8(%ebp),%eax
  10090c:	c7 80 88 00 00 00 02 	movl   $0x2,0x88(%eax)
  100913:	00 00 00 
  100916:	8b 45 08             	mov    0x8(%ebp),%eax
  100919:	c7 80 8c 00 00 00 84 	movl   $0x108884,0x8c(%eax)
  100920:	88 10 00 
  100923:	8b 45 08             	mov    0x8(%ebp),%eax
  100926:	8b 80 8c 00 00 00    	mov    0x8c(%eax),%eax
  10092c:	83 ec 0c             	sub    $0xc,%esp
  10092f:	50                   	push   %eax
  100930:	e8 56 42 00 00       	call   104b8b <proso_strlen>
  100935:	83 c4 10             	add    $0x10,%esp
  100938:	89 c2                	mov    %eax,%edx
  10093a:	8b 45 08             	mov    0x8(%ebp),%eax
  10093d:	8b 80 8c 00 00 00    	mov    0x8c(%eax),%eax
  100943:	83 ec 04             	sub    $0x4,%esp
  100946:	52                   	push   %edx
  100947:	50                   	push   %eax
  100948:	6a 01                	push   $0x1
  10094a:	e8 21 f8 ff ff       	call   100170 <write>
  10094f:	83 c4 10             	add    $0x10,%esp
  100952:	c9                   	leave  
  100953:	c3                   	ret    

00100954 <testNicePar0>:
  100954:	55                   	push   %ebp
  100955:	89 e5                	mov    %esp,%ebp
  100957:	83 ec 18             	sub    $0x18,%esp
  10095a:	83 ec 0c             	sub    $0xc,%esp
  10095d:	6a 00                	push   $0x0
  10095f:	e8 0a 4b 00 00       	call   10546e <zeos_nice>
  100964:	83 c4 10             	add    $0x10,%esp
  100967:	89 45 f4             	mov    %eax,-0xc(%ebp)
  10096a:	83 7d f4 00          	cmpl   $0x0,-0xc(%ebp)
  10096e:	78 4e                	js     1009be <testNicePar0+0x6a>
  100970:	8b 45 08             	mov    0x8(%ebp),%eax
  100973:	c7 80 88 00 00 00 02 	movl   $0x2,0x88(%eax)
  10097a:	00 00 00 
  10097d:	8b 45 08             	mov    0x8(%ebp),%eax
  100980:	c7 80 8c 00 00 00 84 	movl   $0x108884,0x8c(%eax)
  100987:	88 10 00 
  10098a:	8b 45 08             	mov    0x8(%ebp),%eax
  10098d:	8b 80 8c 00 00 00    	mov    0x8c(%eax),%eax
  100993:	83 ec 0c             	sub    $0xc,%esp
  100996:	50                   	push   %eax
  100997:	e8 ef 41 00 00       	call   104b8b <proso_strlen>
  10099c:	83 c4 10             	add    $0x10,%esp
  10099f:	89 c2                	mov    %eax,%edx
  1009a1:	8b 45 08             	mov    0x8(%ebp),%eax
  1009a4:	8b 80 8c 00 00 00    	mov    0x8c(%eax),%eax
  1009aa:	83 ec 04             	sub    $0x4,%esp
  1009ad:	52                   	push   %edx
  1009ae:	50                   	push   %eax
  1009af:	6a 01                	push   $0x1
  1009b1:	e8 ba f7 ff ff       	call   100170 <write>
  1009b6:	83 c4 10             	add    $0x10,%esp
  1009b9:	e9 cb 00 00 00       	jmp    100a89 <testNicePar0+0x135>
  1009be:	83 7d f4 ff          	cmpl   $0xffffffff,-0xc(%ebp)
  1009c2:	75 1c                	jne    1009e0 <testNicePar0+0x8c>
  1009c4:	a1 c4 a4 10 00       	mov    0x10a4c4,%eax
  1009c9:	83 f8 16             	cmp    $0x16,%eax
  1009cc:	75 12                	jne    1009e0 <testNicePar0+0x8c>
  1009ce:	8b 45 08             	mov    0x8(%ebp),%eax
  1009d1:	c7 80 88 00 00 00 00 	movl   $0x0,0x88(%eax)
  1009d8:	00 00 00 
  1009db:	e9 a9 00 00 00       	jmp    100a89 <testNicePar0+0x135>
  1009e0:	83 7d f4 ff          	cmpl   $0xffffffff,-0xc(%ebp)
  1009e4:	75 5a                	jne    100a40 <testNicePar0+0xec>
  1009e6:	a1 c4 a4 10 00       	mov    0x10a4c4,%eax
  1009eb:	83 f8 16             	cmp    $0x16,%eax
  1009ee:	74 50                	je     100a40 <testNicePar0+0xec>
  1009f0:	8b 45 08             	mov    0x8(%ebp),%eax
  1009f3:	c7 80 88 00 00 00 01 	movl   $0x1,0x88(%eax)
  1009fa:	00 00 00 
  1009fd:	e8 9e f7 ff ff       	call   1001a0 <perror>
  100a02:	8b 45 08             	mov    0x8(%ebp),%eax
  100a05:	c7 80 8c 00 00 00 f8 	movl   $0x1087f8,0x8c(%eax)
  100a0c:	87 10 00 
  100a0f:	8b 45 08             	mov    0x8(%ebp),%eax
  100a12:	8b 80 8c 00 00 00    	mov    0x8c(%eax),%eax
  100a18:	83 ec 0c             	sub    $0xc,%esp
  100a1b:	50                   	push   %eax
  100a1c:	e8 6a 41 00 00       	call   104b8b <proso_strlen>
  100a21:	83 c4 10             	add    $0x10,%esp
  100a24:	89 c2                	mov    %eax,%edx
  100a26:	8b 45 08             	mov    0x8(%ebp),%eax
  100a29:	8b 80 8c 00 00 00    	mov    0x8c(%eax),%eax
  100a2f:	83 ec 04             	sub    $0x4,%esp
  100a32:	52                   	push   %edx
  100a33:	50                   	push   %eax
  100a34:	6a 01                	push   $0x1
  100a36:	e8 35 f7 ff ff       	call   100170 <write>
  100a3b:	83 c4 10             	add    $0x10,%esp
  100a3e:	eb 49                	jmp    100a89 <testNicePar0+0x135>
  100a40:	8b 45 08             	mov    0x8(%ebp),%eax
  100a43:	c7 80 88 00 00 00 02 	movl   $0x2,0x88(%eax)
  100a4a:	00 00 00 
  100a4d:	8b 45 08             	mov    0x8(%ebp),%eax
  100a50:	c7 80 8c 00 00 00 44 	movl   $0x108844,0x8c(%eax)
  100a57:	88 10 00 
  100a5a:	8b 45 08             	mov    0x8(%ebp),%eax
  100a5d:	8b 80 8c 00 00 00    	mov    0x8c(%eax),%eax
  100a63:	83 ec 0c             	sub    $0xc,%esp
  100a66:	50                   	push   %eax
  100a67:	e8 1f 41 00 00       	call   104b8b <proso_strlen>
  100a6c:	83 c4 10             	add    $0x10,%esp
  100a6f:	89 c2                	mov    %eax,%edx
  100a71:	8b 45 08             	mov    0x8(%ebp),%eax
  100a74:	8b 80 8c 00 00 00    	mov    0x8c(%eax),%eax
  100a7a:	83 ec 04             	sub    $0x4,%esp
  100a7d:	52                   	push   %edx
  100a7e:	50                   	push   %eax
  100a7f:	6a 01                	push   $0x1
  100a81:	e8 ea f6 ff ff       	call   100170 <write>
  100a86:	83 c4 10             	add    $0x10,%esp
  100a89:	c9                   	leave  
  100a8a:	c3                   	ret    

00100a8b <testNiceRes>:
  100a8b:	55                   	push   %ebp
  100a8c:	89 e5                	mov    %esp,%ebp
  100a8e:	83 ec 18             	sub    $0x18,%esp
  100a91:	83 ec 0c             	sub    $0xc,%esp
  100a94:	6a 0a                	push   $0xa
  100a96:	e8 d3 49 00 00       	call   10546e <zeos_nice>
  100a9b:	83 c4 10             	add    $0x10,%esp
  100a9e:	89 45 f4             	mov    %eax,-0xc(%ebp)
  100aa1:	83 7d f4 00          	cmpl   $0x0,-0xc(%ebp)
  100aa5:	0f 88 81 00 00 00    	js     100b2c <testNiceRes+0xa1>
  100aab:	83 ec 0c             	sub    $0xc,%esp
  100aae:	6a 05                	push   $0x5
  100ab0:	e8 b9 49 00 00       	call   10546e <zeos_nice>
  100ab5:	83 c4 10             	add    $0x10,%esp
  100ab8:	89 45 f0             	mov    %eax,-0x10(%ebp)
  100abb:	83 7d f0 0a          	cmpl   $0xa,-0x10(%ebp)
  100abf:	75 20                	jne    100ae1 <testNiceRes+0x56>
  100ac1:	8b 45 08             	mov    0x8(%ebp),%eax
  100ac4:	c7 80 88 00 00 00 00 	movl   $0x0,0x88(%eax)
  100acb:	00 00 00 
  100ace:	83 ec 0c             	sub    $0xc,%esp
  100ad1:	ff 75 f4             	pushl  -0xc(%ebp)
  100ad4:	e8 95 49 00 00       	call   10546e <zeos_nice>
  100ad9:	83 c4 10             	add    $0x10,%esp
  100adc:	e9 99 00 00 00       	jmp    100b7a <testNiceRes+0xef>
  100ae1:	8b 45 08             	mov    0x8(%ebp),%eax
  100ae4:	c7 80 88 00 00 00 02 	movl   $0x2,0x88(%eax)
  100aeb:	00 00 00 
  100aee:	8b 45 08             	mov    0x8(%ebp),%eax
  100af1:	c7 80 8c 00 00 00 a9 	movl   $0x1088a9,0x8c(%eax)
  100af8:	88 10 00 
  100afb:	8b 45 08             	mov    0x8(%ebp),%eax
  100afe:	8b 80 8c 00 00 00    	mov    0x8c(%eax),%eax
  100b04:	83 ec 0c             	sub    $0xc,%esp
  100b07:	50                   	push   %eax
  100b08:	e8 7e 40 00 00       	call   104b8b <proso_strlen>
  100b0d:	83 c4 10             	add    $0x10,%esp
  100b10:	89 c2                	mov    %eax,%edx
  100b12:	8b 45 08             	mov    0x8(%ebp),%eax
  100b15:	8b 80 8c 00 00 00    	mov    0x8c(%eax),%eax
  100b1b:	83 ec 04             	sub    $0x4,%esp
  100b1e:	52                   	push   %edx
  100b1f:	50                   	push   %eax
  100b20:	6a 01                	push   $0x1
  100b22:	e8 49 f6 ff ff       	call   100170 <write>
  100b27:	83 c4 10             	add    $0x10,%esp
  100b2a:	eb 4e                	jmp    100b7a <testNiceRes+0xef>
  100b2c:	8b 45 08             	mov    0x8(%ebp),%eax
  100b2f:	c7 80 88 00 00 00 02 	movl   $0x2,0x88(%eax)
  100b36:	00 00 00 
  100b39:	e8 62 f6 ff ff       	call   1001a0 <perror>
  100b3e:	8b 45 08             	mov    0x8(%ebp),%eax
  100b41:	c7 80 8c 00 00 00 c8 	movl   $0x1088c8,0x8c(%eax)
  100b48:	88 10 00 
  100b4b:	8b 45 08             	mov    0x8(%ebp),%eax
  100b4e:	8b 80 8c 00 00 00    	mov    0x8c(%eax),%eax
  100b54:	83 ec 0c             	sub    $0xc,%esp
  100b57:	50                   	push   %eax
  100b58:	e8 2e 40 00 00       	call   104b8b <proso_strlen>
  100b5d:	83 c4 10             	add    $0x10,%esp
  100b60:	89 c2                	mov    %eax,%edx
  100b62:	8b 45 08             	mov    0x8(%ebp),%eax
  100b65:	8b 80 8c 00 00 00    	mov    0x8c(%eax),%eax
  100b6b:	83 ec 04             	sub    $0x4,%esp
  100b6e:	52                   	push   %edx
  100b6f:	50                   	push   %eax
  100b70:	6a 01                	push   $0x1
  100b72:	e8 f9 f5 ff ff       	call   100170 <write>
  100b77:	83 c4 10             	add    $0x10,%esp
  100b7a:	c9                   	leave  
  100b7b:	c3                   	ret    

00100b7c <testGetStatsInvalidPID>:
  100b7c:	55                   	push   %ebp
  100b7d:	89 e5                	mov    %esp,%ebp
  100b7f:	83 ec 28             	sub    $0x28,%esp
  100b82:	83 ec 08             	sub    $0x8,%esp
  100b85:	8d 45 d8             	lea    -0x28(%ebp),%eax
  100b88:	50                   	push   %eax
  100b89:	6a ff                	push   $0xffffffff
  100b8b:	e8 50 f6 ff ff       	call   1001e0 <get_stats>
  100b90:	83 c4 10             	add    $0x10,%esp
  100b93:	89 45 f4             	mov    %eax,-0xc(%ebp)
  100b96:	83 7d f4 00          	cmpl   $0x0,-0xc(%ebp)
  100b9a:	78 4e                	js     100bea <testGetStatsInvalidPID+0x6e>
  100b9c:	8b 45 08             	mov    0x8(%ebp),%eax
  100b9f:	c7 80 88 00 00 00 02 	movl   $0x2,0x88(%eax)
  100ba6:	00 00 00 
  100ba9:	8b 45 08             	mov    0x8(%ebp),%eax
  100bac:	c7 80 8c 00 00 00 f0 	movl   $0x1088f0,0x8c(%eax)
  100bb3:	88 10 00 
  100bb6:	8b 45 08             	mov    0x8(%ebp),%eax
  100bb9:	8b 80 8c 00 00 00    	mov    0x8c(%eax),%eax
  100bbf:	83 ec 0c             	sub    $0xc,%esp
  100bc2:	50                   	push   %eax
  100bc3:	e8 c3 3f 00 00       	call   104b8b <proso_strlen>
  100bc8:	83 c4 10             	add    $0x10,%esp
  100bcb:	89 c2                	mov    %eax,%edx
  100bcd:	8b 45 08             	mov    0x8(%ebp),%eax
  100bd0:	8b 80 8c 00 00 00    	mov    0x8c(%eax),%eax
  100bd6:	83 ec 04             	sub    $0x4,%esp
  100bd9:	52                   	push   %edx
  100bda:	50                   	push   %eax
  100bdb:	6a 01                	push   $0x1
  100bdd:	e8 8e f5 ff ff       	call   100170 <write>
  100be2:	83 c4 10             	add    $0x10,%esp
  100be5:	e9 bb 00 00 00       	jmp    100ca5 <testGetStatsInvalidPID+0x129>
  100bea:	83 7d f4 ff          	cmpl   $0xffffffff,-0xc(%ebp)
  100bee:	75 6c                	jne    100c5c <testGetStatsInvalidPID+0xe0>
  100bf0:	a1 c4 a4 10 00       	mov    0x10a4c4,%eax
  100bf5:	83 f8 16             	cmp    $0x16,%eax
  100bf8:	75 12                	jne    100c0c <testGetStatsInvalidPID+0x90>
  100bfa:	8b 45 08             	mov    0x8(%ebp),%eax
  100bfd:	c7 80 88 00 00 00 00 	movl   $0x0,0x88(%eax)
  100c04:	00 00 00 
  100c07:	e9 99 00 00 00       	jmp    100ca5 <testGetStatsInvalidPID+0x129>
  100c0c:	8b 45 08             	mov    0x8(%ebp),%eax
  100c0f:	c7 80 88 00 00 00 01 	movl   $0x1,0x88(%eax)
  100c16:	00 00 00 
  100c19:	e8 82 f5 ff ff       	call   1001a0 <perror>
  100c1e:	8b 45 08             	mov    0x8(%ebp),%eax
  100c21:	c7 80 8c 00 00 00 1c 	movl   $0x10891c,0x8c(%eax)
  100c28:	89 10 00 
  100c2b:	8b 45 08             	mov    0x8(%ebp),%eax
  100c2e:	8b 80 8c 00 00 00    	mov    0x8c(%eax),%eax
  100c34:	83 ec 0c             	sub    $0xc,%esp
  100c37:	50                   	push   %eax
  100c38:	e8 4e 3f 00 00       	call   104b8b <proso_strlen>
  100c3d:	83 c4 10             	add    $0x10,%esp
  100c40:	89 c2                	mov    %eax,%edx
  100c42:	8b 45 08             	mov    0x8(%ebp),%eax
  100c45:	8b 80 8c 00 00 00    	mov    0x8c(%eax),%eax
  100c4b:	83 ec 04             	sub    $0x4,%esp
  100c4e:	52                   	push   %edx
  100c4f:	50                   	push   %eax
  100c50:	6a 01                	push   $0x1
  100c52:	e8 19 f5 ff ff       	call   100170 <write>
  100c57:	83 c4 10             	add    $0x10,%esp
  100c5a:	eb 49                	jmp    100ca5 <testGetStatsInvalidPID+0x129>
  100c5c:	8b 45 08             	mov    0x8(%ebp),%eax
  100c5f:	c7 80 88 00 00 00 02 	movl   $0x2,0x88(%eax)
  100c66:	00 00 00 
  100c69:	8b 45 08             	mov    0x8(%ebp),%eax
  100c6c:	c7 80 8c 00 00 00 6c 	movl   $0x10896c,0x8c(%eax)
  100c73:	89 10 00 
  100c76:	8b 45 08             	mov    0x8(%ebp),%eax
  100c79:	8b 80 8c 00 00 00    	mov    0x8c(%eax),%eax
  100c7f:	83 ec 0c             	sub    $0xc,%esp
  100c82:	50                   	push   %eax
  100c83:	e8 03 3f 00 00       	call   104b8b <proso_strlen>
  100c88:	83 c4 10             	add    $0x10,%esp
  100c8b:	89 c2                	mov    %eax,%edx
  100c8d:	8b 45 08             	mov    0x8(%ebp),%eax
  100c90:	8b 80 8c 00 00 00    	mov    0x8c(%eax),%eax
  100c96:	83 ec 04             	sub    $0x4,%esp
  100c99:	52                   	push   %edx
  100c9a:	50                   	push   %eax
  100c9b:	6a 01                	push   $0x1
  100c9d:	e8 ce f4 ff ff       	call   100170 <write>
  100ca2:	83 c4 10             	add    $0x10,%esp
  100ca5:	c9                   	leave  
  100ca6:	c3                   	ret    

00100ca7 <testGetStatsUnknownPID>:
  100ca7:	55                   	push   %ebp
  100ca8:	89 e5                	mov    %esp,%ebp
  100caa:	83 ec 28             	sub    $0x28,%esp
  100cad:	83 ec 08             	sub    $0x8,%esp
  100cb0:	8d 45 d8             	lea    -0x28(%ebp),%eax
  100cb3:	50                   	push   %eax
  100cb4:	68 e8 fd 00 00       	push   $0xfde8
  100cb9:	e8 22 f5 ff ff       	call   1001e0 <get_stats>
  100cbe:	83 c4 10             	add    $0x10,%esp
  100cc1:	89 45 f4             	mov    %eax,-0xc(%ebp)
  100cc4:	83 7d f4 00          	cmpl   $0x0,-0xc(%ebp)
  100cc8:	78 4e                	js     100d18 <testGetStatsUnknownPID+0x71>
  100cca:	8b 45 08             	mov    0x8(%ebp),%eax
  100ccd:	c7 80 88 00 00 00 02 	movl   $0x2,0x88(%eax)
  100cd4:	00 00 00 
  100cd7:	8b 45 08             	mov    0x8(%ebp),%eax
  100cda:	c7 80 8c 00 00 00 f0 	movl   $0x1088f0,0x8c(%eax)
  100ce1:	88 10 00 
  100ce4:	8b 45 08             	mov    0x8(%ebp),%eax
  100ce7:	8b 80 8c 00 00 00    	mov    0x8c(%eax),%eax
  100ced:	83 ec 0c             	sub    $0xc,%esp
  100cf0:	50                   	push   %eax
  100cf1:	e8 95 3e 00 00       	call   104b8b <proso_strlen>
  100cf6:	83 c4 10             	add    $0x10,%esp
  100cf9:	89 c2                	mov    %eax,%edx
  100cfb:	8b 45 08             	mov    0x8(%ebp),%eax
  100cfe:	8b 80 8c 00 00 00    	mov    0x8c(%eax),%eax
  100d04:	83 ec 04             	sub    $0x4,%esp
  100d07:	52                   	push   %edx
  100d08:	50                   	push   %eax
  100d09:	6a 01                	push   $0x1
  100d0b:	e8 60 f4 ff ff       	call   100170 <write>
  100d10:	83 c4 10             	add    $0x10,%esp
  100d13:	e9 bb 00 00 00       	jmp    100dd3 <testGetStatsUnknownPID+0x12c>
  100d18:	83 7d f4 ff          	cmpl   $0xffffffff,-0xc(%ebp)
  100d1c:	75 6c                	jne    100d8a <testGetStatsUnknownPID+0xe3>
  100d1e:	a1 c4 a4 10 00       	mov    0x10a4c4,%eax
  100d23:	83 f8 03             	cmp    $0x3,%eax
  100d26:	75 12                	jne    100d3a <testGetStatsUnknownPID+0x93>
  100d28:	8b 45 08             	mov    0x8(%ebp),%eax
  100d2b:	c7 80 88 00 00 00 00 	movl   $0x0,0x88(%eax)
  100d32:	00 00 00 
  100d35:	e9 99 00 00 00       	jmp    100dd3 <testGetStatsUnknownPID+0x12c>
  100d3a:	8b 45 08             	mov    0x8(%ebp),%eax
  100d3d:	c7 80 88 00 00 00 01 	movl   $0x1,0x88(%eax)
  100d44:	00 00 00 
  100d47:	e8 54 f4 ff ff       	call   1001a0 <perror>
  100d4c:	8b 45 08             	mov    0x8(%ebp),%eax
  100d4f:	c7 80 8c 00 00 00 b0 	movl   $0x1089b0,0x8c(%eax)
  100d56:	89 10 00 
  100d59:	8b 45 08             	mov    0x8(%ebp),%eax
  100d5c:	8b 80 8c 00 00 00    	mov    0x8c(%eax),%eax
  100d62:	83 ec 0c             	sub    $0xc,%esp
  100d65:	50                   	push   %eax
  100d66:	e8 20 3e 00 00       	call   104b8b <proso_strlen>
  100d6b:	83 c4 10             	add    $0x10,%esp
  100d6e:	89 c2                	mov    %eax,%edx
  100d70:	8b 45 08             	mov    0x8(%ebp),%eax
  100d73:	8b 80 8c 00 00 00    	mov    0x8c(%eax),%eax
  100d79:	83 ec 04             	sub    $0x4,%esp
  100d7c:	52                   	push   %edx
  100d7d:	50                   	push   %eax
  100d7e:	6a 01                	push   $0x1
  100d80:	e8 eb f3 ff ff       	call   100170 <write>
  100d85:	83 c4 10             	add    $0x10,%esp
  100d88:	eb 49                	jmp    100dd3 <testGetStatsUnknownPID+0x12c>
  100d8a:	8b 45 08             	mov    0x8(%ebp),%eax
  100d8d:	c7 80 88 00 00 00 02 	movl   $0x2,0x88(%eax)
  100d94:	00 00 00 
  100d97:	8b 45 08             	mov    0x8(%ebp),%eax
  100d9a:	c7 80 8c 00 00 00 6c 	movl   $0x10896c,0x8c(%eax)
  100da1:	89 10 00 
  100da4:	8b 45 08             	mov    0x8(%ebp),%eax
  100da7:	8b 80 8c 00 00 00    	mov    0x8c(%eax),%eax
  100dad:	83 ec 0c             	sub    $0xc,%esp
  100db0:	50                   	push   %eax
  100db1:	e8 d5 3d 00 00       	call   104b8b <proso_strlen>
  100db6:	83 c4 10             	add    $0x10,%esp
  100db9:	89 c2                	mov    %eax,%edx
  100dbb:	8b 45 08             	mov    0x8(%ebp),%eax
  100dbe:	8b 80 8c 00 00 00    	mov    0x8c(%eax),%eax
  100dc4:	83 ec 04             	sub    $0x4,%esp
  100dc7:	52                   	push   %edx
  100dc8:	50                   	push   %eax
  100dc9:	6a 01                	push   $0x1
  100dcb:	e8 a0 f3 ff ff       	call   100170 <write>
  100dd0:	83 c4 10             	add    $0x10,%esp
  100dd3:	c9                   	leave  
  100dd4:	c3                   	ret    

00100dd5 <testGetStatsInvalidAddress>:
  100dd5:	55                   	push   %ebp
  100dd6:	89 e5                	mov    %esp,%ebp
  100dd8:	83 ec 18             	sub    $0x18,%esp
  100ddb:	e8 30 f3 ff ff       	call   100110 <getpid>
  100de0:	83 ec 08             	sub    $0x8,%esp
  100de3:	6a 00                	push   $0x0
  100de5:	50                   	push   %eax
  100de6:	e8 f5 f3 ff ff       	call   1001e0 <get_stats>
  100deb:	83 c4 10             	add    $0x10,%esp
  100dee:	89 45 f4             	mov    %eax,-0xc(%ebp)
  100df1:	83 7d f4 00          	cmpl   $0x0,-0xc(%ebp)
  100df5:	78 4e                	js     100e45 <testGetStatsInvalidAddress+0x70>
  100df7:	8b 45 08             	mov    0x8(%ebp),%eax
  100dfa:	c7 80 88 00 00 00 02 	movl   $0x2,0x88(%eax)
  100e01:	00 00 00 
  100e04:	8b 45 08             	mov    0x8(%ebp),%eax
  100e07:	c7 80 8c 00 00 00 f0 	movl   $0x1088f0,0x8c(%eax)
  100e0e:	88 10 00 
  100e11:	8b 45 08             	mov    0x8(%ebp),%eax
  100e14:	8b 80 8c 00 00 00    	mov    0x8c(%eax),%eax
  100e1a:	83 ec 0c             	sub    $0xc,%esp
  100e1d:	50                   	push   %eax
  100e1e:	e8 68 3d 00 00       	call   104b8b <proso_strlen>
  100e23:	83 c4 10             	add    $0x10,%esp
  100e26:	89 c2                	mov    %eax,%edx
  100e28:	8b 45 08             	mov    0x8(%ebp),%eax
  100e2b:	8b 80 8c 00 00 00    	mov    0x8c(%eax),%eax
  100e31:	83 ec 04             	sub    $0x4,%esp
  100e34:	52                   	push   %edx
  100e35:	50                   	push   %eax
  100e36:	6a 01                	push   $0x1
  100e38:	e8 33 f3 ff ff       	call   100170 <write>
  100e3d:	83 c4 10             	add    $0x10,%esp
  100e40:	e9 bb 00 00 00       	jmp    100f00 <testGetStatsInvalidAddress+0x12b>
  100e45:	83 7d f4 ff          	cmpl   $0xffffffff,-0xc(%ebp)
  100e49:	75 6c                	jne    100eb7 <testGetStatsInvalidAddress+0xe2>
  100e4b:	a1 c4 a4 10 00       	mov    0x10a4c4,%eax
  100e50:	83 f8 0e             	cmp    $0xe,%eax
  100e53:	75 12                	jne    100e67 <testGetStatsInvalidAddress+0x92>
  100e55:	8b 45 08             	mov    0x8(%ebp),%eax
  100e58:	c7 80 88 00 00 00 00 	movl   $0x0,0x88(%eax)
  100e5f:	00 00 00 
  100e62:	e9 99 00 00 00       	jmp    100f00 <testGetStatsInvalidAddress+0x12b>
  100e67:	8b 45 08             	mov    0x8(%ebp),%eax
  100e6a:	c7 80 88 00 00 00 01 	movl   $0x1,0x88(%eax)
  100e71:	00 00 00 
  100e74:	e8 27 f3 ff ff       	call   1001a0 <perror>
  100e79:	8b 45 08             	mov    0x8(%ebp),%eax
  100e7c:	c7 80 8c 00 00 00 00 	movl   $0x108a00,0x8c(%eax)
  100e83:	8a 10 00 
  100e86:	8b 45 08             	mov    0x8(%ebp),%eax
  100e89:	8b 80 8c 00 00 00    	mov    0x8c(%eax),%eax
  100e8f:	83 ec 0c             	sub    $0xc,%esp
  100e92:	50                   	push   %eax
  100e93:	e8 f3 3c 00 00       	call   104b8b <proso_strlen>
  100e98:	83 c4 10             	add    $0x10,%esp
  100e9b:	89 c2                	mov    %eax,%edx
  100e9d:	8b 45 08             	mov    0x8(%ebp),%eax
  100ea0:	8b 80 8c 00 00 00    	mov    0x8c(%eax),%eax
  100ea6:	83 ec 04             	sub    $0x4,%esp
  100ea9:	52                   	push   %edx
  100eaa:	50                   	push   %eax
  100eab:	6a 01                	push   $0x1
  100ead:	e8 be f2 ff ff       	call   100170 <write>
  100eb2:	83 c4 10             	add    $0x10,%esp
  100eb5:	eb 49                	jmp    100f00 <testGetStatsInvalidAddress+0x12b>
  100eb7:	8b 45 08             	mov    0x8(%ebp),%eax
  100eba:	c7 80 88 00 00 00 02 	movl   $0x2,0x88(%eax)
  100ec1:	00 00 00 
  100ec4:	8b 45 08             	mov    0x8(%ebp),%eax
  100ec7:	c7 80 8c 00 00 00 6c 	movl   $0x10896c,0x8c(%eax)
  100ece:	89 10 00 
  100ed1:	8b 45 08             	mov    0x8(%ebp),%eax
  100ed4:	8b 80 8c 00 00 00    	mov    0x8c(%eax),%eax
  100eda:	83 ec 0c             	sub    $0xc,%esp
  100edd:	50                   	push   %eax
  100ede:	e8 a8 3c 00 00       	call   104b8b <proso_strlen>
  100ee3:	83 c4 10             	add    $0x10,%esp
  100ee6:	89 c2                	mov    %eax,%edx
  100ee8:	8b 45 08             	mov    0x8(%ebp),%eax
  100eeb:	8b 80 8c 00 00 00    	mov    0x8c(%eax),%eax
  100ef1:	83 ec 04             	sub    $0x4,%esp
  100ef4:	52                   	push   %edx
  100ef5:	50                   	push   %eax
  100ef6:	6a 01                	push   $0x1
  100ef8:	e8 73 f2 ff ff       	call   100170 <write>
  100efd:	83 c4 10             	add    $0x10,%esp
  100f00:	c9                   	leave  
  100f01:	c3                   	ret    

00100f02 <testGetStatsInvalidAddress1>:
  100f02:	55                   	push   %ebp
  100f03:	89 e5                	mov    %esp,%ebp
  100f05:	83 ec 18             	sub    $0x18,%esp
  100f08:	e8 03 f2 ff ff       	call   100110 <getpid>
  100f0d:	83 ec 08             	sub    $0x8,%esp
  100f10:	68 00 00 01 00       	push   $0x10000
  100f15:	50                   	push   %eax
  100f16:	e8 c5 f2 ff ff       	call   1001e0 <get_stats>
  100f1b:	83 c4 10             	add    $0x10,%esp
  100f1e:	89 45 f4             	mov    %eax,-0xc(%ebp)
  100f21:	83 7d f4 00          	cmpl   $0x0,-0xc(%ebp)
  100f25:	78 4e                	js     100f75 <testGetStatsInvalidAddress1+0x73>
  100f27:	8b 45 08             	mov    0x8(%ebp),%eax
  100f2a:	c7 80 88 00 00 00 02 	movl   $0x2,0x88(%eax)
  100f31:	00 00 00 
  100f34:	8b 45 08             	mov    0x8(%ebp),%eax
  100f37:	c7 80 8c 00 00 00 f0 	movl   $0x1088f0,0x8c(%eax)
  100f3e:	88 10 00 
  100f41:	8b 45 08             	mov    0x8(%ebp),%eax
  100f44:	8b 80 8c 00 00 00    	mov    0x8c(%eax),%eax
  100f4a:	83 ec 0c             	sub    $0xc,%esp
  100f4d:	50                   	push   %eax
  100f4e:	e8 38 3c 00 00       	call   104b8b <proso_strlen>
  100f53:	83 c4 10             	add    $0x10,%esp
  100f56:	89 c2                	mov    %eax,%edx
  100f58:	8b 45 08             	mov    0x8(%ebp),%eax
  100f5b:	8b 80 8c 00 00 00    	mov    0x8c(%eax),%eax
  100f61:	83 ec 04             	sub    $0x4,%esp
  100f64:	52                   	push   %edx
  100f65:	50                   	push   %eax
  100f66:	6a 01                	push   $0x1
  100f68:	e8 03 f2 ff ff       	call   100170 <write>
  100f6d:	83 c4 10             	add    $0x10,%esp
  100f70:	e9 bb 00 00 00       	jmp    101030 <testGetStatsInvalidAddress1+0x12e>
  100f75:	83 7d f4 ff          	cmpl   $0xffffffff,-0xc(%ebp)
  100f79:	75 6c                	jne    100fe7 <testGetStatsInvalidAddress1+0xe5>
  100f7b:	a1 c4 a4 10 00       	mov    0x10a4c4,%eax
  100f80:	83 f8 0e             	cmp    $0xe,%eax
  100f83:	75 12                	jne    100f97 <testGetStatsInvalidAddress1+0x95>
  100f85:	8b 45 08             	mov    0x8(%ebp),%eax
  100f88:	c7 80 88 00 00 00 00 	movl   $0x0,0x88(%eax)
  100f8f:	00 00 00 
  100f92:	e9 99 00 00 00       	jmp    101030 <testGetStatsInvalidAddress1+0x12e>
  100f97:	8b 45 08             	mov    0x8(%ebp),%eax
  100f9a:	c7 80 88 00 00 00 01 	movl   $0x1,0x88(%eax)
  100fa1:	00 00 00 
  100fa4:	e8 f7 f1 ff ff       	call   1001a0 <perror>
  100fa9:	8b 45 08             	mov    0x8(%ebp),%eax
  100fac:	c7 80 8c 00 00 00 00 	movl   $0x108a00,0x8c(%eax)
  100fb3:	8a 10 00 
  100fb6:	8b 45 08             	mov    0x8(%ebp),%eax
  100fb9:	8b 80 8c 00 00 00    	mov    0x8c(%eax),%eax
  100fbf:	83 ec 0c             	sub    $0xc,%esp
  100fc2:	50                   	push   %eax
  100fc3:	e8 c3 3b 00 00       	call   104b8b <proso_strlen>
  100fc8:	83 c4 10             	add    $0x10,%esp
  100fcb:	89 c2                	mov    %eax,%edx
  100fcd:	8b 45 08             	mov    0x8(%ebp),%eax
  100fd0:	8b 80 8c 00 00 00    	mov    0x8c(%eax),%eax
  100fd6:	83 ec 04             	sub    $0x4,%esp
  100fd9:	52                   	push   %edx
  100fda:	50                   	push   %eax
  100fdb:	6a 01                	push   $0x1
  100fdd:	e8 8e f1 ff ff       	call   100170 <write>
  100fe2:	83 c4 10             	add    $0x10,%esp
  100fe5:	eb 49                	jmp    101030 <testGetStatsInvalidAddress1+0x12e>
  100fe7:	8b 45 08             	mov    0x8(%ebp),%eax
  100fea:	c7 80 88 00 00 00 02 	movl   $0x2,0x88(%eax)
  100ff1:	00 00 00 
  100ff4:	8b 45 08             	mov    0x8(%ebp),%eax
  100ff7:	c7 80 8c 00 00 00 6c 	movl   $0x10896c,0x8c(%eax)
  100ffe:	89 10 00 
  101001:	8b 45 08             	mov    0x8(%ebp),%eax
  101004:	8b 80 8c 00 00 00    	mov    0x8c(%eax),%eax
  10100a:	83 ec 0c             	sub    $0xc,%esp
  10100d:	50                   	push   %eax
  10100e:	e8 78 3b 00 00       	call   104b8b <proso_strlen>
  101013:	83 c4 10             	add    $0x10,%esp
  101016:	89 c2                	mov    %eax,%edx
  101018:	8b 45 08             	mov    0x8(%ebp),%eax
  10101b:	8b 80 8c 00 00 00    	mov    0x8c(%eax),%eax
  101021:	83 ec 04             	sub    $0x4,%esp
  101024:	52                   	push   %edx
  101025:	50                   	push   %eax
  101026:	6a 01                	push   $0x1
  101028:	e8 43 f1 ff ff       	call   100170 <write>
  10102d:	83 c4 10             	add    $0x10,%esp
  101030:	c9                   	leave  
  101031:	c3                   	ret    

00101032 <testGetStatsInvalidAddress2>:
  101032:	55                   	push   %ebp
  101033:	89 e5                	mov    %esp,%ebp
  101035:	83 ec 18             	sub    $0x18,%esp
  101038:	e8 d3 f0 ff ff       	call   100110 <getpid>
  10103d:	83 ec 08             	sub    $0x8,%esp
  101040:	68 ef be ad de       	push   $0xdeadbeef
  101045:	50                   	push   %eax
  101046:	e8 95 f1 ff ff       	call   1001e0 <get_stats>
  10104b:	83 c4 10             	add    $0x10,%esp
  10104e:	89 45 f4             	mov    %eax,-0xc(%ebp)
  101051:	83 7d f4 00          	cmpl   $0x0,-0xc(%ebp)
  101055:	78 4e                	js     1010a5 <testGetStatsInvalidAddress2+0x73>
  101057:	8b 45 08             	mov    0x8(%ebp),%eax
  10105a:	c7 80 88 00 00 00 02 	movl   $0x2,0x88(%eax)
  101061:	00 00 00 
  101064:	8b 45 08             	mov    0x8(%ebp),%eax
  101067:	c7 80 8c 00 00 00 f0 	movl   $0x1088f0,0x8c(%eax)
  10106e:	88 10 00 
  101071:	8b 45 08             	mov    0x8(%ebp),%eax
  101074:	8b 80 8c 00 00 00    	mov    0x8c(%eax),%eax
  10107a:	83 ec 0c             	sub    $0xc,%esp
  10107d:	50                   	push   %eax
  10107e:	e8 08 3b 00 00       	call   104b8b <proso_strlen>
  101083:	83 c4 10             	add    $0x10,%esp
  101086:	89 c2                	mov    %eax,%edx
  101088:	8b 45 08             	mov    0x8(%ebp),%eax
  10108b:	8b 80 8c 00 00 00    	mov    0x8c(%eax),%eax
  101091:	83 ec 04             	sub    $0x4,%esp
  101094:	52                   	push   %edx
  101095:	50                   	push   %eax
  101096:	6a 01                	push   $0x1
  101098:	e8 d3 f0 ff ff       	call   100170 <write>
  10109d:	83 c4 10             	add    $0x10,%esp
  1010a0:	e9 bb 00 00 00       	jmp    101160 <testGetStatsInvalidAddress2+0x12e>
  1010a5:	83 7d f4 ff          	cmpl   $0xffffffff,-0xc(%ebp)
  1010a9:	75 6c                	jne    101117 <testGetStatsInvalidAddress2+0xe5>
  1010ab:	a1 c4 a4 10 00       	mov    0x10a4c4,%eax
  1010b0:	83 f8 0e             	cmp    $0xe,%eax
  1010b3:	75 12                	jne    1010c7 <testGetStatsInvalidAddress2+0x95>
  1010b5:	8b 45 08             	mov    0x8(%ebp),%eax
  1010b8:	c7 80 88 00 00 00 00 	movl   $0x0,0x88(%eax)
  1010bf:	00 00 00 
  1010c2:	e9 99 00 00 00       	jmp    101160 <testGetStatsInvalidAddress2+0x12e>
  1010c7:	8b 45 08             	mov    0x8(%ebp),%eax
  1010ca:	c7 80 88 00 00 00 01 	movl   $0x1,0x88(%eax)
  1010d1:	00 00 00 
  1010d4:	e8 c7 f0 ff ff       	call   1001a0 <perror>
  1010d9:	8b 45 08             	mov    0x8(%ebp),%eax
  1010dc:	c7 80 8c 00 00 00 00 	movl   $0x108a00,0x8c(%eax)
  1010e3:	8a 10 00 
  1010e6:	8b 45 08             	mov    0x8(%ebp),%eax
  1010e9:	8b 80 8c 00 00 00    	mov    0x8c(%eax),%eax
  1010ef:	83 ec 0c             	sub    $0xc,%esp
  1010f2:	50                   	push   %eax
  1010f3:	e8 93 3a 00 00       	call   104b8b <proso_strlen>
  1010f8:	83 c4 10             	add    $0x10,%esp
  1010fb:	89 c2                	mov    %eax,%edx
  1010fd:	8b 45 08             	mov    0x8(%ebp),%eax
  101100:	8b 80 8c 00 00 00    	mov    0x8c(%eax),%eax
  101106:	83 ec 04             	sub    $0x4,%esp
  101109:	52                   	push   %edx
  10110a:	50                   	push   %eax
  10110b:	6a 01                	push   $0x1
  10110d:	e8 5e f0 ff ff       	call   100170 <write>
  101112:	83 c4 10             	add    $0x10,%esp
  101115:	eb 49                	jmp    101160 <testGetStatsInvalidAddress2+0x12e>
  101117:	8b 45 08             	mov    0x8(%ebp),%eax
  10111a:	c7 80 88 00 00 00 02 	movl   $0x2,0x88(%eax)
  101121:	00 00 00 
  101124:	8b 45 08             	mov    0x8(%ebp),%eax
  101127:	c7 80 8c 00 00 00 6c 	movl   $0x10896c,0x8c(%eax)
  10112e:	89 10 00 
  101131:	8b 45 08             	mov    0x8(%ebp),%eax
  101134:	8b 80 8c 00 00 00    	mov    0x8c(%eax),%eax
  10113a:	83 ec 0c             	sub    $0xc,%esp
  10113d:	50                   	push   %eax
  10113e:	e8 48 3a 00 00       	call   104b8b <proso_strlen>
  101143:	83 c4 10             	add    $0x10,%esp
  101146:	89 c2                	mov    %eax,%edx
  101148:	8b 45 08             	mov    0x8(%ebp),%eax
  10114b:	8b 80 8c 00 00 00    	mov    0x8c(%eax),%eax
  101151:	83 ec 04             	sub    $0x4,%esp
  101154:	52                   	push   %edx
  101155:	50                   	push   %eax
  101156:	6a 01                	push   $0x1
  101158:	e8 13 f0 ff ff       	call   100170 <write>
  10115d:	83 c4 10             	add    $0x10,%esp
  101160:	c9                   	leave  
  101161:	c3                   	ret    

00101162 <testGetStatsCurrent>:
  101162:	55                   	push   %ebp
  101163:	89 e5                	mov    %esp,%ebp
  101165:	83 ec 28             	sub    $0x28,%esp
  101168:	e8 af f0 ff ff       	call   10021c <delay>
  10116d:	e8 9e ef ff ff       	call   100110 <getpid>
  101172:	89 c2                	mov    %eax,%edx
  101174:	83 ec 08             	sub    $0x8,%esp
  101177:	8d 45 d8             	lea    -0x28(%ebp),%eax
  10117a:	50                   	push   %eax
  10117b:	52                   	push   %edx
  10117c:	e8 5f f0 ff ff       	call   1001e0 <get_stats>
  101181:	83 c4 10             	add    $0x10,%esp
  101184:	89 45 f4             	mov    %eax,-0xc(%ebp)
  101187:	83 7d f4 00          	cmpl   $0x0,-0xc(%ebp)
  10118b:	74 56                	je     1011e3 <testGetStatsCurrent+0x81>
  10118d:	8b 45 08             	mov    0x8(%ebp),%eax
  101190:	c7 80 88 00 00 00 02 	movl   $0x2,0x88(%eax)
  101197:	00 00 00 
  10119a:	83 7d f4 00          	cmpl   $0x0,-0xc(%ebp)
  10119e:	79 05                	jns    1011a5 <testGetStatsCurrent+0x43>
  1011a0:	e8 fb ef ff ff       	call   1001a0 <perror>
  1011a5:	8b 45 08             	mov    0x8(%ebp),%eax
  1011a8:	c7 80 8c 00 00 00 50 	movl   $0x108a50,0x8c(%eax)
  1011af:	8a 10 00 
  1011b2:	8b 45 08             	mov    0x8(%ebp),%eax
  1011b5:	8b 80 8c 00 00 00    	mov    0x8c(%eax),%eax
  1011bb:	83 ec 0c             	sub    $0xc,%esp
  1011be:	50                   	push   %eax
  1011bf:	e8 c7 39 00 00       	call   104b8b <proso_strlen>
  1011c4:	83 c4 10             	add    $0x10,%esp
  1011c7:	89 c2                	mov    %eax,%edx
  1011c9:	8b 45 08             	mov    0x8(%ebp),%eax
  1011cc:	8b 80 8c 00 00 00    	mov    0x8c(%eax),%eax
  1011d2:	83 ec 04             	sub    $0x4,%esp
  1011d5:	52                   	push   %edx
  1011d6:	50                   	push   %eax
  1011d7:	6a 01                	push   $0x1
  1011d9:	e8 92 ef ff ff       	call   100170 <write>
  1011de:	83 c4 10             	add    $0x10,%esp
  1011e1:	eb 5c                	jmp    10123f <testGetStatsCurrent+0xdd>
  1011e3:	83 ec 0c             	sub    $0xc,%esp
  1011e6:	8d 45 d8             	lea    -0x28(%ebp),%eax
  1011e9:	50                   	push   %eax
  1011ea:	e8 d9 3a 00 00       	call   104cc8 <get_tics>
  1011ef:	83 c4 10             	add    $0x10,%esp
  1011f2:	85 c0                	test   %eax,%eax
  1011f4:	75 49                	jne    10123f <testGetStatsCurrent+0xdd>
  1011f6:	8b 45 08             	mov    0x8(%ebp),%eax
  1011f9:	c7 80 88 00 00 00 02 	movl   $0x2,0x88(%eax)
  101200:	00 00 00 
  101203:	8b 45 08             	mov    0x8(%ebp),%eax
  101206:	c7 80 8c 00 00 00 78 	movl   $0x108a78,0x8c(%eax)
  10120d:	8a 10 00 
  101210:	8b 45 08             	mov    0x8(%ebp),%eax
  101213:	8b 80 8c 00 00 00    	mov    0x8c(%eax),%eax
  101219:	83 ec 0c             	sub    $0xc,%esp
  10121c:	50                   	push   %eax
  10121d:	e8 69 39 00 00       	call   104b8b <proso_strlen>
  101222:	83 c4 10             	add    $0x10,%esp
  101225:	89 c2                	mov    %eax,%edx
  101227:	8b 45 08             	mov    0x8(%ebp),%eax
  10122a:	8b 80 8c 00 00 00    	mov    0x8c(%eax),%eax
  101230:	83 ec 04             	sub    $0x4,%esp
  101233:	52                   	push   %edx
  101234:	50                   	push   %eax
  101235:	6a 01                	push   $0x1
  101237:	e8 34 ef ff ff       	call   100170 <write>
  10123c:	83 c4 10             	add    $0x10,%esp
  10123f:	c9                   	leave  
  101240:	c3                   	ret    

00101241 <testTicsAccountingRunning>:
  101241:	55                   	push   %ebp
  101242:	89 e5                	mov    %esp,%ebp
  101244:	53                   	push   %ebx
  101245:	83 ec 44             	sub    $0x44,%esp
  101248:	e8 cf ef ff ff       	call   10021c <delay>
  10124d:	e8 be ee ff ff       	call   100110 <getpid>
  101252:	89 c2                	mov    %eax,%edx
  101254:	83 ec 08             	sub    $0x8,%esp
  101257:	8d 45 d8             	lea    -0x28(%ebp),%eax
  10125a:	50                   	push   %eax
  10125b:	52                   	push   %edx
  10125c:	e8 7f ef ff ff       	call   1001e0 <get_stats>
  101261:	83 c4 10             	add    $0x10,%esp
  101264:	89 45 f4             	mov    %eax,-0xc(%ebp)
  101267:	83 7d f4 00          	cmpl   $0x0,-0xc(%ebp)
  10126b:	0f 88 4c 01 00 00    	js     1013bd <testTicsAccountingRunning+0x17c>
  101271:	83 ec 0c             	sub    $0xc,%esp
  101274:	8d 45 d8             	lea    -0x28(%ebp),%eax
  101277:	50                   	push   %eax
  101278:	e8 4b 3a 00 00       	call   104cc8 <get_tics>
  10127d:	83 c4 10             	add    $0x10,%esp
  101280:	85 c0                	test   %eax,%eax
  101282:	75 4e                	jne    1012d2 <testTicsAccountingRunning+0x91>
  101284:	8b 45 08             	mov    0x8(%ebp),%eax
  101287:	c7 80 88 00 00 00 02 	movl   $0x2,0x88(%eax)
  10128e:	00 00 00 
  101291:	8b 45 08             	mov    0x8(%ebp),%eax
  101294:	c7 80 8c 00 00 00 78 	movl   $0x108a78,0x8c(%eax)
  10129b:	8a 10 00 
  10129e:	8b 45 08             	mov    0x8(%ebp),%eax
  1012a1:	8b 80 8c 00 00 00    	mov    0x8c(%eax),%eax
  1012a7:	83 ec 0c             	sub    $0xc,%esp
  1012aa:	50                   	push   %eax
  1012ab:	e8 db 38 00 00       	call   104b8b <proso_strlen>
  1012b0:	83 c4 10             	add    $0x10,%esp
  1012b3:	89 c2                	mov    %eax,%edx
  1012b5:	8b 45 08             	mov    0x8(%ebp),%eax
  1012b8:	8b 80 8c 00 00 00    	mov    0x8c(%eax),%eax
  1012be:	83 ec 04             	sub    $0x4,%esp
  1012c1:	52                   	push   %edx
  1012c2:	50                   	push   %eax
  1012c3:	6a 01                	push   $0x1
  1012c5:	e8 a6 ee ff ff       	call   100170 <write>
  1012ca:	83 c4 10             	add    $0x10,%esp
  1012cd:	e9 2c 01 00 00       	jmp    1013fe <testTicsAccountingRunning+0x1bd>
  1012d2:	e8 45 ef ff ff       	call   10021c <delay>
  1012d7:	e8 34 ee ff ff       	call   100110 <getpid>
  1012dc:	89 c2                	mov    %eax,%edx
  1012de:	83 ec 08             	sub    $0x8,%esp
  1012e1:	8d 45 bc             	lea    -0x44(%ebp),%eax
  1012e4:	50                   	push   %eax
  1012e5:	52                   	push   %edx
  1012e6:	e8 f5 ee ff ff       	call   1001e0 <get_stats>
  1012eb:	83 c4 10             	add    $0x10,%esp
  1012ee:	89 45 f4             	mov    %eax,-0xc(%ebp)
  1012f1:	83 7d f4 00          	cmpl   $0x0,-0xc(%ebp)
  1012f5:	74 53                	je     10134a <testTicsAccountingRunning+0x109>
  1012f7:	8b 45 08             	mov    0x8(%ebp),%eax
  1012fa:	c7 80 88 00 00 00 02 	movl   $0x2,0x88(%eax)
  101301:	00 00 00 
  101304:	e8 97 ee ff ff       	call   1001a0 <perror>
  101309:	8b 45 08             	mov    0x8(%ebp),%eax
  10130c:	c7 80 8c 00 00 00 a0 	movl   $0x108aa0,0x8c(%eax)
  101313:	8a 10 00 
  101316:	8b 45 08             	mov    0x8(%ebp),%eax
  101319:	8b 80 8c 00 00 00    	mov    0x8c(%eax),%eax
  10131f:	83 ec 0c             	sub    $0xc,%esp
  101322:	50                   	push   %eax
  101323:	e8 63 38 00 00       	call   104b8b <proso_strlen>
  101328:	83 c4 10             	add    $0x10,%esp
  10132b:	89 c2                	mov    %eax,%edx
  10132d:	8b 45 08             	mov    0x8(%ebp),%eax
  101330:	8b 80 8c 00 00 00    	mov    0x8c(%eax),%eax
  101336:	83 ec 04             	sub    $0x4,%esp
  101339:	52                   	push   %edx
  10133a:	50                   	push   %eax
  10133b:	6a 01                	push   $0x1
  10133d:	e8 2e ee ff ff       	call   100170 <write>
  101342:	83 c4 10             	add    $0x10,%esp
  101345:	e9 b4 00 00 00       	jmp    1013fe <testTicsAccountingRunning+0x1bd>
  10134a:	83 ec 0c             	sub    $0xc,%esp
  10134d:	8d 45 bc             	lea    -0x44(%ebp),%eax
  101350:	50                   	push   %eax
  101351:	e8 72 39 00 00       	call   104cc8 <get_tics>
  101356:	83 c4 10             	add    $0x10,%esp
  101359:	89 c3                	mov    %eax,%ebx
  10135b:	83 ec 0c             	sub    $0xc,%esp
  10135e:	8d 45 d8             	lea    -0x28(%ebp),%eax
  101361:	50                   	push   %eax
  101362:	e8 61 39 00 00       	call   104cc8 <get_tics>
  101367:	83 c4 10             	add    $0x10,%esp
  10136a:	39 c3                	cmp    %eax,%ebx
  10136c:	0f 87 8c 00 00 00    	ja     1013fe <testTicsAccountingRunning+0x1bd>
  101372:	8b 45 08             	mov    0x8(%ebp),%eax
  101375:	c7 80 88 00 00 00 02 	movl   $0x2,0x88(%eax)
  10137c:	00 00 00 
  10137f:	8b 45 08             	mov    0x8(%ebp),%eax
  101382:	c7 80 8c 00 00 00 78 	movl   $0x108a78,0x8c(%eax)
  101389:	8a 10 00 
  10138c:	8b 45 08             	mov    0x8(%ebp),%eax
  10138f:	8b 80 8c 00 00 00    	mov    0x8c(%eax),%eax
  101395:	83 ec 0c             	sub    $0xc,%esp
  101398:	50                   	push   %eax
  101399:	e8 ed 37 00 00       	call   104b8b <proso_strlen>
  10139e:	83 c4 10             	add    $0x10,%esp
  1013a1:	89 c2                	mov    %eax,%edx
  1013a3:	8b 45 08             	mov    0x8(%ebp),%eax
  1013a6:	8b 80 8c 00 00 00    	mov    0x8c(%eax),%eax
  1013ac:	83 ec 04             	sub    $0x4,%esp
  1013af:	52                   	push   %edx
  1013b0:	50                   	push   %eax
  1013b1:	6a 01                	push   $0x1
  1013b3:	e8 b8 ed ff ff       	call   100170 <write>
  1013b8:	83 c4 10             	add    $0x10,%esp
  1013bb:	eb 41                	jmp    1013fe <testTicsAccountingRunning+0x1bd>
  1013bd:	e8 de ed ff ff       	call   1001a0 <perror>
  1013c2:	8b 45 08             	mov    0x8(%ebp),%eax
  1013c5:	c7 80 8c 00 00 00 a0 	movl   $0x108aa0,0x8c(%eax)
  1013cc:	8a 10 00 
  1013cf:	8b 45 08             	mov    0x8(%ebp),%eax
  1013d2:	8b 80 8c 00 00 00    	mov    0x8c(%eax),%eax
  1013d8:	83 ec 0c             	sub    $0xc,%esp
  1013db:	50                   	push   %eax
  1013dc:	e8 aa 37 00 00       	call   104b8b <proso_strlen>
  1013e1:	83 c4 10             	add    $0x10,%esp
  1013e4:	89 c2                	mov    %eax,%edx
  1013e6:	8b 45 08             	mov    0x8(%ebp),%eax
  1013e9:	8b 80 8c 00 00 00    	mov    0x8c(%eax),%eax
  1013ef:	83 ec 04             	sub    $0x4,%esp
  1013f2:	52                   	push   %edx
  1013f3:	50                   	push   %eax
  1013f4:	6a 01                	push   $0x1
  1013f6:	e8 75 ed ff ff       	call   100170 <write>
  1013fb:	83 c4 10             	add    $0x10,%esp
  1013fe:	8b 5d fc             	mov    -0x4(%ebp),%ebx
  101401:	c9                   	leave  
  101402:	c3                   	ret    

00101403 <testTicsAccountingRemaining>:
  101403:	55                   	push   %ebp
  101404:	89 e5                	mov    %esp,%ebp
  101406:	81 ec a8 00 00 00    	sub    $0xa8,%esp
  10140c:	e8 09 3d 00 00       	call   10511a <busyWaitRemaining>
  101411:	85 c0                	test   %eax,%eax
  101413:	74 49                	je     10145e <testTicsAccountingRemaining+0x5b>
  101415:	8b 45 08             	mov    0x8(%ebp),%eax
  101418:	c7 80 88 00 00 00 02 	movl   $0x2,0x88(%eax)
  10141f:	00 00 00 
  101422:	8b 45 08             	mov    0x8(%ebp),%eax
  101425:	c7 80 8c 00 00 00 d0 	movl   $0x108ad0,0x8c(%eax)
  10142c:	8a 10 00 
  10142f:	8b 45 08             	mov    0x8(%ebp),%eax
  101432:	8b 80 8c 00 00 00    	mov    0x8c(%eax),%eax
  101438:	83 ec 0c             	sub    $0xc,%esp
  10143b:	50                   	push   %eax
  10143c:	e8 4a 37 00 00       	call   104b8b <proso_strlen>
  101441:	83 c4 10             	add    $0x10,%esp
  101444:	89 c2                	mov    %eax,%edx
  101446:	8b 45 08             	mov    0x8(%ebp),%eax
  101449:	8b 80 8c 00 00 00    	mov    0x8c(%eax),%eax
  10144f:	83 ec 04             	sub    $0x4,%esp
  101452:	52                   	push   %edx
  101453:	50                   	push   %eax
  101454:	6a 01                	push   $0x1
  101456:	e8 15 ed ff ff       	call   100170 <write>
  10145b:	83 c4 10             	add    $0x10,%esp
  10145e:	c9                   	leave  
  10145f:	c3                   	ret    

00101460 <testFatherResultFork>:
  101460:	55                   	push   %ebp
  101461:	89 e5                	mov    %esp,%ebp
  101463:	83 ec 18             	sub    $0x18,%esp
  101466:	e8 a5 ec ff ff       	call   100110 <getpid>
  10146b:	89 45 f4             	mov    %eax,-0xc(%ebp)
  10146e:	e8 cd ec ff ff       	call   100140 <fork>
  101473:	89 45 f0             	mov    %eax,-0x10(%ebp)
  101476:	e8 95 ec ff ff       	call   100110 <getpid>
  10147b:	3b 45 f4             	cmp    -0xc(%ebp),%eax
  10147e:	75 60                	jne    1014e0 <testFatherResultFork+0x80>
  101480:	83 7d f0 00          	cmpl   $0x0,-0x10(%ebp)
  101484:	7f 4b                	jg     1014d1 <testFatherResultFork+0x71>
  101486:	8b 45 08             	mov    0x8(%ebp),%eax
  101489:	c7 80 88 00 00 00 02 	movl   $0x2,0x88(%eax)
  101490:	00 00 00 
  101493:	8b 45 08             	mov    0x8(%ebp),%eax
  101496:	c7 80 8c 00 00 00 04 	movl   $0x108b04,0x8c(%eax)
  10149d:	8b 10 00 
  1014a0:	8b 45 08             	mov    0x8(%ebp),%eax
  1014a3:	8b 80 8c 00 00 00    	mov    0x8c(%eax),%eax
  1014a9:	83 ec 0c             	sub    $0xc,%esp
  1014ac:	50                   	push   %eax
  1014ad:	e8 d9 36 00 00       	call   104b8b <proso_strlen>
  1014b2:	83 c4 10             	add    $0x10,%esp
  1014b5:	89 c2                	mov    %eax,%edx
  1014b7:	8b 45 08             	mov    0x8(%ebp),%eax
  1014ba:	8b 80 8c 00 00 00    	mov    0x8c(%eax),%eax
  1014c0:	83 ec 04             	sub    $0x4,%esp
  1014c3:	52                   	push   %edx
  1014c4:	50                   	push   %eax
  1014c5:	6a 01                	push   $0x1
  1014c7:	e8 a4 ec ff ff       	call   100170 <write>
  1014cc:	83 c4 10             	add    $0x10,%esp
  1014cf:	eb 37                	jmp    101508 <testFatherResultFork+0xa8>
  1014d1:	8b 45 08             	mov    0x8(%ebp),%eax
  1014d4:	c7 80 88 00 00 00 00 	movl   $0x0,0x88(%eax)
  1014db:	00 00 00 
  1014de:	eb 28                	jmp    101508 <testFatherResultFork+0xa8>
  1014e0:	e8 2b ed ff ff       	call   100210 <exit>
  1014e5:	83 ec 0c             	sub    $0xc,%esp
  1014e8:	68 50 8b 10 00       	push   $0x108b50
  1014ed:	e8 99 36 00 00       	call   104b8b <proso_strlen>
  1014f2:	83 c4 10             	add    $0x10,%esp
  1014f5:	83 ec 04             	sub    $0x4,%esp
  1014f8:	50                   	push   %eax
  1014f9:	68 50 8b 10 00       	push   $0x108b50
  1014fe:	6a 01                	push   $0x1
  101500:	e8 6b ec ff ff       	call   100170 <write>
  101505:	83 c4 10             	add    $0x10,%esp
  101508:	c9                   	leave  
  101509:	c3                   	ret    

0010150a <testChildResultFork>:
  10150a:	55                   	push   %ebp
  10150b:	89 e5                	mov    %esp,%ebp
  10150d:	83 ec 28             	sub    $0x28,%esp
  101510:	e8 fb eb ff ff       	call   100110 <getpid>
  101515:	89 45 f4             	mov    %eax,-0xc(%ebp)
  101518:	e8 23 ec ff ff       	call   100140 <fork>
  10151d:	89 45 f0             	mov    %eax,-0x10(%ebp)
  101520:	83 7d f0 00          	cmpl   $0x0,-0x10(%ebp)
  101524:	7e 7f                	jle    1015a5 <testChildResultFork+0x9b>
  101526:	e8 e5 eb ff ff       	call   100110 <getpid>
  10152b:	3b 45 f4             	cmp    -0xc(%ebp),%eax
  10152e:	74 4b                	je     10157b <testChildResultFork+0x71>
  101530:	8b 45 08             	mov    0x8(%ebp),%eax
  101533:	c7 80 88 00 00 00 02 	movl   $0x2,0x88(%eax)
  10153a:	00 00 00 
  10153d:	8b 45 08             	mov    0x8(%ebp),%eax
  101540:	c7 80 8c 00 00 00 74 	movl   $0x108b74,0x8c(%eax)
  101547:	8b 10 00 
  10154a:	8b 45 08             	mov    0x8(%ebp),%eax
  10154d:	8b 80 8c 00 00 00    	mov    0x8c(%eax),%eax
  101553:	83 ec 0c             	sub    $0xc,%esp
  101556:	50                   	push   %eax
  101557:	e8 2f 36 00 00       	call   104b8b <proso_strlen>
  10155c:	83 c4 10             	add    $0x10,%esp
  10155f:	89 c2                	mov    %eax,%edx
  101561:	8b 45 08             	mov    0x8(%ebp),%eax
  101564:	8b 80 8c 00 00 00    	mov    0x8c(%eax),%eax
  10156a:	83 ec 04             	sub    $0x4,%esp
  10156d:	52                   	push   %edx
  10156e:	50                   	push   %eax
  10156f:	6a 01                	push   $0x1
  101571:	e8 fa eb ff ff       	call   100170 <write>
  101576:	83 c4 10             	add    $0x10,%esp
  101579:	eb 79                	jmp    1015f4 <testChildResultFork+0xea>
  10157b:	e8 90 ec ff ff       	call   100210 <exit>
  101580:	83 ec 0c             	sub    $0xc,%esp
  101583:	68 50 8b 10 00       	push   $0x108b50
  101588:	e8 fe 35 00 00       	call   104b8b <proso_strlen>
  10158d:	83 c4 10             	add    $0x10,%esp
  101590:	83 ec 04             	sub    $0x4,%esp
  101593:	50                   	push   %eax
  101594:	68 50 8b 10 00       	push   $0x108b50
  101599:	6a 01                	push   $0x1
  10159b:	e8 d0 eb ff ff       	call   100170 <write>
  1015a0:	83 c4 10             	add    $0x10,%esp
  1015a3:	eb 4f                	jmp    1015f4 <testChildResultFork+0xea>
  1015a5:	83 7d f0 00          	cmpl   $0x0,-0x10(%ebp)
  1015a9:	79 49                	jns    1015f4 <testChildResultFork+0xea>
  1015ab:	8b 45 08             	mov    0x8(%ebp),%eax
  1015ae:	c7 80 88 00 00 00 02 	movl   $0x2,0x88(%eax)
  1015b5:	00 00 00 
  1015b8:	8b 45 08             	mov    0x8(%ebp),%eax
  1015bb:	c7 80 8c 00 00 00 b0 	movl   $0x108bb0,0x8c(%eax)
  1015c2:	8b 10 00 
  1015c5:	8b 45 08             	mov    0x8(%ebp),%eax
  1015c8:	8b 80 8c 00 00 00    	mov    0x8c(%eax),%eax
  1015ce:	83 ec 0c             	sub    $0xc,%esp
  1015d1:	50                   	push   %eax
  1015d2:	e8 b4 35 00 00       	call   104b8b <proso_strlen>
  1015d7:	83 c4 10             	add    $0x10,%esp
  1015da:	89 c2                	mov    %eax,%edx
  1015dc:	8b 45 08             	mov    0x8(%ebp),%eax
  1015df:	8b 80 8c 00 00 00    	mov    0x8c(%eax),%eax
  1015e5:	83 ec 04             	sub    $0x4,%esp
  1015e8:	52                   	push   %edx
  1015e9:	50                   	push   %eax
  1015ea:	6a 01                	push   $0x1
  1015ec:	e8 7f eb ff ff       	call   100170 <write>
  1015f1:	83 c4 10             	add    $0x10,%esp
  1015f4:	c9                   	leave  
  1015f5:	c3                   	ret    

001015f6 <testForkInheritQuantum>:
  1015f6:	55                   	push   %ebp
  1015f7:	89 e5                	mov    %esp,%ebp
  1015f9:	83 ec 18             	sub    $0x18,%esp
  1015fc:	c7 45 f4 00 00 00 00 	movl   $0x0,-0xc(%ebp)
  101603:	c7 45 f0 15 00 00 00 	movl   $0x15,-0x10(%ebp)
  10160a:	c7 45 ec 00 00 00 00 	movl   $0x0,-0x14(%ebp)
  101611:	83 ec 0c             	sub    $0xc,%esp
  101614:	ff 75 f0             	pushl  -0x10(%ebp)
  101617:	e8 52 3e 00 00       	call   10546e <zeos_nice>
  10161c:	83 c4 10             	add    $0x10,%esp
  10161f:	89 45 f4             	mov    %eax,-0xc(%ebp)
  101622:	83 7d f4 00          	cmpl   $0x0,-0xc(%ebp)
  101626:	79 53                	jns    10167b <testForkInheritQuantum+0x85>
  101628:	8b 45 08             	mov    0x8(%ebp),%eax
  10162b:	c7 80 8c 00 00 00 e8 	movl   $0x108be8,0x8c(%eax)
  101632:	8b 10 00 
  101635:	8b 45 08             	mov    0x8(%ebp),%eax
  101638:	8b 80 8c 00 00 00    	mov    0x8c(%eax),%eax
  10163e:	83 ec 0c             	sub    $0xc,%esp
  101641:	50                   	push   %eax
  101642:	e8 44 35 00 00       	call   104b8b <proso_strlen>
  101647:	83 c4 10             	add    $0x10,%esp
  10164a:	89 c2                	mov    %eax,%edx
  10164c:	8b 45 08             	mov    0x8(%ebp),%eax
  10164f:	8b 80 8c 00 00 00    	mov    0x8c(%eax),%eax
  101655:	83 ec 04             	sub    $0x4,%esp
  101658:	52                   	push   %edx
  101659:	50                   	push   %eax
  10165a:	6a 01                	push   $0x1
  10165c:	e8 0f eb ff ff       	call   100170 <write>
  101661:	83 c4 10             	add    $0x10,%esp
  101664:	8b 45 08             	mov    0x8(%ebp),%eax
  101667:	c7 80 88 00 00 00 02 	movl   $0x2,0x88(%eax)
  10166e:	00 00 00 
  101671:	b8 00 00 00 00       	mov    $0x0,%eax
  101676:	e9 07 01 00 00       	jmp    101782 <testForkInheritQuantum+0x18c>
  10167b:	e8 c0 ea ff ff       	call   100140 <fork>
  101680:	89 45 e8             	mov    %eax,-0x18(%ebp)
  101683:	83 7d e8 00          	cmpl   $0x0,-0x18(%ebp)
  101687:	79 58                	jns    1016e1 <testForkInheritQuantum+0xeb>
  101689:	8b 45 08             	mov    0x8(%ebp),%eax
  10168c:	c7 80 8c 00 00 00 34 	movl   $0x108c34,0x8c(%eax)
  101693:	8c 10 00 
  101696:	8b 45 08             	mov    0x8(%ebp),%eax
  101699:	8b 80 8c 00 00 00    	mov    0x8c(%eax),%eax
  10169f:	83 ec 0c             	sub    $0xc,%esp
  1016a2:	50                   	push   %eax
  1016a3:	e8 e3 34 00 00       	call   104b8b <proso_strlen>
  1016a8:	83 c4 10             	add    $0x10,%esp
  1016ab:	89 c2                	mov    %eax,%edx
  1016ad:	8b 45 08             	mov    0x8(%ebp),%eax
  1016b0:	8b 80 8c 00 00 00    	mov    0x8c(%eax),%eax
  1016b6:	83 ec 04             	sub    $0x4,%esp
  1016b9:	52                   	push   %edx
  1016ba:	50                   	push   %eax
  1016bb:	6a 01                	push   $0x1
  1016bd:	e8 ae ea ff ff       	call   100170 <write>
  1016c2:	83 c4 10             	add    $0x10,%esp
  1016c5:	e8 d6 ea ff ff       	call   1001a0 <perror>
  1016ca:	8b 45 08             	mov    0x8(%ebp),%eax
  1016cd:	c7 80 88 00 00 00 02 	movl   $0x2,0x88(%eax)
  1016d4:	00 00 00 
  1016d7:	b8 00 00 00 00       	mov    $0x0,%eax
  1016dc:	e9 a1 00 00 00       	jmp    101782 <testForkInheritQuantum+0x18c>
  1016e1:	83 7d e8 00          	cmpl   $0x0,-0x18(%ebp)
  1016e5:	75 73                	jne    10175a <testForkInheritQuantum+0x164>
  1016e7:	83 ec 0c             	sub    $0xc,%esp
  1016ea:	ff 75 f4             	pushl  -0xc(%ebp)
  1016ed:	e8 7c 3d 00 00       	call   10546e <zeos_nice>
  1016f2:	83 c4 10             	add    $0x10,%esp
  1016f5:	89 45 ec             	mov    %eax,-0x14(%ebp)
  1016f8:	8b 45 ec             	mov    -0x14(%ebp),%eax
  1016fb:	3b 45 f0             	cmp    -0x10(%ebp),%eax
  1016fe:	74 4b                	je     10174b <testForkInheritQuantum+0x155>
  101700:	8b 45 08             	mov    0x8(%ebp),%eax
  101703:	c7 80 8c 00 00 00 60 	movl   $0x108c60,0x8c(%eax)
  10170a:	8c 10 00 
  10170d:	8b 45 08             	mov    0x8(%ebp),%eax
  101710:	8b 80 8c 00 00 00    	mov    0x8c(%eax),%eax
  101716:	83 ec 0c             	sub    $0xc,%esp
  101719:	50                   	push   %eax
  10171a:	e8 6c 34 00 00       	call   104b8b <proso_strlen>
  10171f:	83 c4 10             	add    $0x10,%esp
  101722:	89 c2                	mov    %eax,%edx
  101724:	8b 45 08             	mov    0x8(%ebp),%eax
  101727:	8b 80 8c 00 00 00    	mov    0x8c(%eax),%eax
  10172d:	83 ec 04             	sub    $0x4,%esp
  101730:	52                   	push   %edx
  101731:	50                   	push   %eax
  101732:	6a 01                	push   $0x1
  101734:	e8 37 ea ff ff       	call   100170 <write>
  101739:	83 c4 10             	add    $0x10,%esp
  10173c:	8b 45 08             	mov    0x8(%ebp),%eax
  10173f:	c7 80 88 00 00 00 02 	movl   $0x2,0x88(%eax)
  101746:	00 00 00 
  101749:	eb 37                	jmp    101782 <testForkInheritQuantum+0x18c>
  10174b:	8b 45 08             	mov    0x8(%ebp),%eax
  10174e:	c7 80 88 00 00 00 00 	movl   $0x0,0x88(%eax)
  101755:	00 00 00 
  101758:	eb 28                	jmp    101782 <testForkInheritQuantum+0x18c>
  10175a:	e8 b1 ea ff ff       	call   100210 <exit>
  10175f:	83 ec 0c             	sub    $0xc,%esp
  101762:	68 50 8b 10 00       	push   $0x108b50
  101767:	e8 1f 34 00 00       	call   104b8b <proso_strlen>
  10176c:	83 c4 10             	add    $0x10,%esp
  10176f:	83 ec 04             	sub    $0x4,%esp
  101772:	50                   	push   %eax
  101773:	68 50 8b 10 00       	push   $0x108b50
  101778:	6a 01                	push   $0x1
  10177a:	e8 f1 e9 ff ff       	call   100170 <write>
  10177f:	83 c4 10             	add    $0x10,%esp
  101782:	c9                   	leave  
  101783:	c3                   	ret    

00101784 <testForkResetStats>:
  101784:	55                   	push   %ebp
  101785:	89 e5                	mov    %esp,%ebp
  101787:	53                   	push   %ebx
  101788:	81 ec a4 00 00 00    	sub    $0xa4,%esp
  10178e:	e8 89 ea ff ff       	call   10021c <delay>
  101793:	e8 84 ea ff ff       	call   10021c <delay>
  101798:	e8 73 e9 ff ff       	call   100110 <getpid>
  10179d:	89 c2                	mov    %eax,%edx
  10179f:	83 ec 08             	sub    $0x8,%esp
  1017a2:	8d 45 d8             	lea    -0x28(%ebp),%eax
  1017a5:	50                   	push   %eax
  1017a6:	52                   	push   %edx
  1017a7:	e8 34 ea ff ff       	call   1001e0 <get_stats>
  1017ac:	83 c4 10             	add    $0x10,%esp
  1017af:	85 c0                	test   %eax,%eax
  1017b1:	0f 88 b2 02 00 00    	js     101a69 <testForkResetStats+0x2e5>
  1017b7:	e8 84 e9 ff ff       	call   100140 <fork>
  1017bc:	89 45 f4             	mov    %eax,-0xc(%ebp)
  1017bf:	83 7d f4 00          	cmpl   $0x0,-0xc(%ebp)
  1017c3:	0f 85 20 02 00 00    	jne    1019e9 <testForkResetStats+0x265>
  1017c9:	e8 42 e9 ff ff       	call   100110 <getpid>
  1017ce:	89 c2                	mov    %eax,%edx
  1017d0:	83 ec 08             	sub    $0x8,%esp
  1017d3:	8d 45 bc             	lea    -0x44(%ebp),%eax
  1017d6:	50                   	push   %eax
  1017d7:	52                   	push   %edx
  1017d8:	e8 03 ea ff ff       	call   1001e0 <get_stats>
  1017dd:	83 c4 10             	add    $0x10,%esp
  1017e0:	85 c0                	test   %eax,%eax
  1017e2:	0f 88 ae 01 00 00    	js     101996 <testForkResetStats+0x212>
  1017e8:	83 ec 0c             	sub    $0xc,%esp
  1017eb:	8d 45 bc             	lea    -0x44(%ebp),%eax
  1017ee:	50                   	push   %eax
  1017ef:	e8 d4 34 00 00       	call   104cc8 <get_tics>
  1017f4:	83 c4 10             	add    $0x10,%esp
  1017f7:	89 c3                	mov    %eax,%ebx
  1017f9:	83 ec 0c             	sub    $0xc,%esp
  1017fc:	8d 45 d8             	lea    -0x28(%ebp),%eax
  1017ff:	50                   	push   %eax
  101800:	e8 c3 34 00 00       	call   104cc8 <get_tics>
  101805:	83 c4 10             	add    $0x10,%esp
  101808:	39 c3                	cmp    %eax,%ebx
  10180a:	0f 82 57 02 00 00    	jb     101a67 <testForkResetStats+0x2e3>
  101810:	83 ec 0c             	sub    $0xc,%esp
  101813:	68 9e 8c 10 00       	push   $0x108c9e
  101818:	e8 6e 33 00 00       	call   104b8b <proso_strlen>
  10181d:	83 c4 10             	add    $0x10,%esp
  101820:	83 ec 04             	sub    $0x4,%esp
  101823:	50                   	push   %eax
  101824:	68 9e 8c 10 00       	push   $0x108c9e
  101829:	6a 01                	push   $0x1
  10182b:	e8 40 e9 ff ff       	call   100170 <write>
  101830:	83 c4 10             	add    $0x10,%esp
  101833:	83 ec 0c             	sub    $0xc,%esp
  101836:	8d 45 d8             	lea    -0x28(%ebp),%eax
  101839:	50                   	push   %eax
  10183a:	e8 89 34 00 00       	call   104cc8 <get_tics>
  10183f:	83 c4 10             	add    $0x10,%esp
  101842:	89 c2                	mov    %eax,%edx
  101844:	83 ec 08             	sub    $0x8,%esp
  101847:	8d 85 58 ff ff ff    	lea    -0xa8(%ebp),%eax
  10184d:	50                   	push   %eax
  10184e:	52                   	push   %edx
  10184f:	e8 af 33 00 00       	call   104c03 <proso_itoa>
  101854:	83 c4 10             	add    $0x10,%esp
  101857:	83 ec 0c             	sub    $0xc,%esp
  10185a:	50                   	push   %eax
  10185b:	e8 2b 33 00 00       	call   104b8b <proso_strlen>
  101860:	83 c4 10             	add    $0x10,%esp
  101863:	89 c3                	mov    %eax,%ebx
  101865:	83 ec 0c             	sub    $0xc,%esp
  101868:	8d 45 d8             	lea    -0x28(%ebp),%eax
  10186b:	50                   	push   %eax
  10186c:	e8 57 34 00 00       	call   104cc8 <get_tics>
  101871:	83 c4 10             	add    $0x10,%esp
  101874:	89 c2                	mov    %eax,%edx
  101876:	83 ec 08             	sub    $0x8,%esp
  101879:	8d 85 58 ff ff ff    	lea    -0xa8(%ebp),%eax
  10187f:	50                   	push   %eax
  101880:	52                   	push   %edx
  101881:	e8 7d 33 00 00       	call   104c03 <proso_itoa>
  101886:	83 c4 10             	add    $0x10,%esp
  101889:	83 ec 04             	sub    $0x4,%esp
  10188c:	53                   	push   %ebx
  10188d:	50                   	push   %eax
  10188e:	6a 01                	push   $0x1
  101890:	e8 db e8 ff ff       	call   100170 <write>
  101895:	83 c4 10             	add    $0x10,%esp
  101898:	83 ec 0c             	sub    $0xc,%esp
  10189b:	68 b9 8c 10 00       	push   $0x108cb9
  1018a0:	e8 e6 32 00 00       	call   104b8b <proso_strlen>
  1018a5:	83 c4 10             	add    $0x10,%esp
  1018a8:	83 ec 04             	sub    $0x4,%esp
  1018ab:	50                   	push   %eax
  1018ac:	68 b9 8c 10 00       	push   $0x108cb9
  1018b1:	6a 01                	push   $0x1
  1018b3:	e8 b8 e8 ff ff       	call   100170 <write>
  1018b8:	83 c4 10             	add    $0x10,%esp
  1018bb:	83 ec 0c             	sub    $0xc,%esp
  1018be:	8d 45 bc             	lea    -0x44(%ebp),%eax
  1018c1:	50                   	push   %eax
  1018c2:	e8 01 34 00 00       	call   104cc8 <get_tics>
  1018c7:	83 c4 10             	add    $0x10,%esp
  1018ca:	89 c2                	mov    %eax,%edx
  1018cc:	83 ec 08             	sub    $0x8,%esp
  1018cf:	8d 85 58 ff ff ff    	lea    -0xa8(%ebp),%eax
  1018d5:	50                   	push   %eax
  1018d6:	52                   	push   %edx
  1018d7:	e8 27 33 00 00       	call   104c03 <proso_itoa>
  1018dc:	83 c4 10             	add    $0x10,%esp
  1018df:	83 ec 0c             	sub    $0xc,%esp
  1018e2:	50                   	push   %eax
  1018e3:	e8 a3 32 00 00       	call   104b8b <proso_strlen>
  1018e8:	83 c4 10             	add    $0x10,%esp
  1018eb:	89 c3                	mov    %eax,%ebx
  1018ed:	83 ec 0c             	sub    $0xc,%esp
  1018f0:	8d 45 bc             	lea    -0x44(%ebp),%eax
  1018f3:	50                   	push   %eax
  1018f4:	e8 cf 33 00 00       	call   104cc8 <get_tics>
  1018f9:	83 c4 10             	add    $0x10,%esp
  1018fc:	89 c2                	mov    %eax,%edx
  1018fe:	83 ec 08             	sub    $0x8,%esp
  101901:	8d 85 58 ff ff ff    	lea    -0xa8(%ebp),%eax
  101907:	50                   	push   %eax
  101908:	52                   	push   %edx
  101909:	e8 f5 32 00 00       	call   104c03 <proso_itoa>
  10190e:	83 c4 10             	add    $0x10,%esp
  101911:	83 ec 04             	sub    $0x4,%esp
  101914:	53                   	push   %ebx
  101915:	50                   	push   %eax
  101916:	6a 01                	push   $0x1
  101918:	e8 53 e8 ff ff       	call   100170 <write>
  10191d:	83 c4 10             	add    $0x10,%esp
  101920:	83 ec 0c             	sub    $0xc,%esp
  101923:	68 d2 8c 10 00       	push   $0x108cd2
  101928:	e8 5e 32 00 00       	call   104b8b <proso_strlen>
  10192d:	83 c4 10             	add    $0x10,%esp
  101930:	83 ec 04             	sub    $0x4,%esp
  101933:	50                   	push   %eax
  101934:	68 d2 8c 10 00       	push   $0x108cd2
  101939:	6a 01                	push   $0x1
  10193b:	e8 30 e8 ff ff       	call   100170 <write>
  101940:	83 c4 10             	add    $0x10,%esp
  101943:	8b 45 08             	mov    0x8(%ebp),%eax
  101946:	c7 80 88 00 00 00 02 	movl   $0x2,0x88(%eax)
  10194d:	00 00 00 
  101950:	e8 4b e8 ff ff       	call   1001a0 <perror>
  101955:	8b 45 08             	mov    0x8(%ebp),%eax
  101958:	c7 80 8c 00 00 00 d4 	movl   $0x108cd4,0x8c(%eax)
  10195f:	8c 10 00 
  101962:	8b 45 08             	mov    0x8(%ebp),%eax
  101965:	8b 80 8c 00 00 00    	mov    0x8c(%eax),%eax
  10196b:	83 ec 0c             	sub    $0xc,%esp
  10196e:	50                   	push   %eax
  10196f:	e8 17 32 00 00       	call   104b8b <proso_strlen>
  101974:	83 c4 10             	add    $0x10,%esp
  101977:	89 c2                	mov    %eax,%edx
  101979:	8b 45 08             	mov    0x8(%ebp),%eax
  10197c:	8b 80 8c 00 00 00    	mov    0x8c(%eax),%eax
  101982:	83 ec 04             	sub    $0x4,%esp
  101985:	52                   	push   %edx
  101986:	50                   	push   %eax
  101987:	6a 01                	push   $0x1
  101989:	e8 e2 e7 ff ff       	call   100170 <write>
  10198e:	83 c4 10             	add    $0x10,%esp
  101991:	e9 d1 00 00 00       	jmp    101a67 <testForkResetStats+0x2e3>
  101996:	8b 45 08             	mov    0x8(%ebp),%eax
  101999:	c7 80 88 00 00 00 02 	movl   $0x2,0x88(%eax)
  1019a0:	00 00 00 
  1019a3:	e8 f8 e7 ff ff       	call   1001a0 <perror>
  1019a8:	8b 45 08             	mov    0x8(%ebp),%eax
  1019ab:	c7 80 8c 00 00 00 10 	movl   $0x108d10,0x8c(%eax)
  1019b2:	8d 10 00 
  1019b5:	8b 45 08             	mov    0x8(%ebp),%eax
  1019b8:	8b 80 8c 00 00 00    	mov    0x8c(%eax),%eax
  1019be:	83 ec 0c             	sub    $0xc,%esp
  1019c1:	50                   	push   %eax
  1019c2:	e8 c4 31 00 00       	call   104b8b <proso_strlen>
  1019c7:	83 c4 10             	add    $0x10,%esp
  1019ca:	89 c2                	mov    %eax,%edx
  1019cc:	8b 45 08             	mov    0x8(%ebp),%eax
  1019cf:	8b 80 8c 00 00 00    	mov    0x8c(%eax),%eax
  1019d5:	83 ec 04             	sub    $0x4,%esp
  1019d8:	52                   	push   %edx
  1019d9:	50                   	push   %eax
  1019da:	6a 01                	push   $0x1
  1019dc:	e8 8f e7 ff ff       	call   100170 <write>
  1019e1:	83 c4 10             	add    $0x10,%esp
  1019e4:	e9 ce 00 00 00       	jmp    101ab7 <testForkResetStats+0x333>
  1019e9:	83 7d f4 ff          	cmpl   $0xffffffff,-0xc(%ebp)
  1019ed:	74 28                	je     101a17 <testForkResetStats+0x293>
  1019ef:	e8 1c e8 ff ff       	call   100210 <exit>
  1019f4:	83 ec 0c             	sub    $0xc,%esp
  1019f7:	68 50 8b 10 00       	push   $0x108b50
  1019fc:	e8 8a 31 00 00       	call   104b8b <proso_strlen>
  101a01:	83 c4 10             	add    $0x10,%esp
  101a04:	83 ec 04             	sub    $0x4,%esp
  101a07:	50                   	push   %eax
  101a08:	68 50 8b 10 00       	push   $0x108b50
  101a0d:	6a 01                	push   $0x1
  101a0f:	e8 5c e7 ff ff       	call   100170 <write>
  101a14:	83 c4 10             	add    $0x10,%esp
  101a17:	8b 45 08             	mov    0x8(%ebp),%eax
  101a1a:	c7 80 88 00 00 00 02 	movl   $0x2,0x88(%eax)
  101a21:	00 00 00 
  101a24:	e8 77 e7 ff ff       	call   1001a0 <perror>
  101a29:	8b 45 08             	mov    0x8(%ebp),%eax
  101a2c:	c7 80 8c 00 00 00 40 	movl   $0x108d40,0x8c(%eax)
  101a33:	8d 10 00 
  101a36:	8b 45 08             	mov    0x8(%ebp),%eax
  101a39:	8b 80 8c 00 00 00    	mov    0x8c(%eax),%eax
  101a3f:	83 ec 0c             	sub    $0xc,%esp
  101a42:	50                   	push   %eax
  101a43:	e8 43 31 00 00       	call   104b8b <proso_strlen>
  101a48:	83 c4 10             	add    $0x10,%esp
  101a4b:	89 c2                	mov    %eax,%edx
  101a4d:	8b 45 08             	mov    0x8(%ebp),%eax
  101a50:	8b 80 8c 00 00 00    	mov    0x8c(%eax),%eax
  101a56:	83 ec 04             	sub    $0x4,%esp
  101a59:	52                   	push   %edx
  101a5a:	50                   	push   %eax
  101a5b:	6a 01                	push   $0x1
  101a5d:	e8 0e e7 ff ff       	call   100170 <write>
  101a62:	83 c4 10             	add    $0x10,%esp
  101a65:	eb 50                	jmp    101ab7 <testForkResetStats+0x333>
  101a67:	eb 4e                	jmp    101ab7 <testForkResetStats+0x333>
  101a69:	8b 45 08             	mov    0x8(%ebp),%eax
  101a6c:	c7 80 88 00 00 00 02 	movl   $0x2,0x88(%eax)
  101a73:	00 00 00 
  101a76:	e8 25 e7 ff ff       	call   1001a0 <perror>
  101a7b:	8b 45 08             	mov    0x8(%ebp),%eax
  101a7e:	c7 80 8c 00 00 00 10 	movl   $0x108d10,0x8c(%eax)
  101a85:	8d 10 00 
  101a88:	8b 45 08             	mov    0x8(%ebp),%eax
  101a8b:	8b 80 8c 00 00 00    	mov    0x8c(%eax),%eax
  101a91:	83 ec 0c             	sub    $0xc,%esp
  101a94:	50                   	push   %eax
  101a95:	e8 f1 30 00 00       	call   104b8b <proso_strlen>
  101a9a:	83 c4 10             	add    $0x10,%esp
  101a9d:	89 c2                	mov    %eax,%edx
  101a9f:	8b 45 08             	mov    0x8(%ebp),%eax
  101aa2:	8b 80 8c 00 00 00    	mov    0x8c(%eax),%eax
  101aa8:	83 ec 04             	sub    $0x4,%esp
  101aab:	52                   	push   %edx
  101aac:	50                   	push   %eax
  101aad:	6a 01                	push   $0x1
  101aaf:	e8 bc e6 ff ff       	call   100170 <write>
  101ab4:	83 c4 10             	add    $0x10,%esp
  101ab7:	8b 5d fc             	mov    -0x4(%ebp),%ebx
  101aba:	c9                   	leave  
  101abb:	c3                   	ret    

00101abc <testGetStatsReady>:
  101abc:	55                   	push   %ebp
  101abd:	89 e5                	mov    %esp,%ebp
  101abf:	53                   	push   %ebx
  101ac0:	83 ec 54             	sub    $0x54,%esp
  101ac3:	e8 48 e6 ff ff       	call   100110 <getpid>
  101ac8:	89 45 f4             	mov    %eax,-0xc(%ebp)
  101acb:	e8 70 e6 ff ff       	call   100140 <fork>
  101ad0:	89 45 f0             	mov    %eax,-0x10(%ebp)
  101ad3:	83 7d f0 00          	cmpl   $0x0,-0x10(%ebp)
  101ad7:	79 53                	jns    101b2c <testGetStatsReady+0x70>
  101ad9:	8b 45 08             	mov    0x8(%ebp),%eax
  101adc:	c7 80 88 00 00 00 02 	movl   $0x2,0x88(%eax)
  101ae3:	00 00 00 
  101ae6:	e8 b5 e6 ff ff       	call   1001a0 <perror>
  101aeb:	8b 45 08             	mov    0x8(%ebp),%eax
  101aee:	c7 80 8c 00 00 00 40 	movl   $0x108d40,0x8c(%eax)
  101af5:	8d 10 00 
  101af8:	8b 45 08             	mov    0x8(%ebp),%eax
  101afb:	8b 80 8c 00 00 00    	mov    0x8c(%eax),%eax
  101b01:	83 ec 0c             	sub    $0xc,%esp
  101b04:	50                   	push   %eax
  101b05:	e8 81 30 00 00       	call   104b8b <proso_strlen>
  101b0a:	83 c4 10             	add    $0x10,%esp
  101b0d:	89 c2                	mov    %eax,%edx
  101b0f:	8b 45 08             	mov    0x8(%ebp),%eax
  101b12:	8b 80 8c 00 00 00    	mov    0x8c(%eax),%eax
  101b18:	83 ec 04             	sub    $0x4,%esp
  101b1b:	52                   	push   %edx
  101b1c:	50                   	push   %eax
  101b1d:	6a 01                	push   $0x1
  101b1f:	e8 4c e6 ff ff       	call   100170 <write>
  101b24:	83 c4 10             	add    $0x10,%esp
  101b27:	e9 3a 01 00 00       	jmp    101c66 <testGetStatsReady+0x1aa>
  101b2c:	83 7d f0 00          	cmpl   $0x0,-0x10(%ebp)
  101b30:	7e 2d                	jle    101b5f <testGetStatsReady+0xa3>
  101b32:	e8 b1 31 00 00       	call   104ce8 <busyWaitCS>
  101b37:	e8 d4 e6 ff ff       	call   100210 <exit>
  101b3c:	83 ec 0c             	sub    $0xc,%esp
  101b3f:	68 50 8b 10 00       	push   $0x108b50
  101b44:	e8 42 30 00 00       	call   104b8b <proso_strlen>
  101b49:	83 c4 10             	add    $0x10,%esp
  101b4c:	83 ec 04             	sub    $0x4,%esp
  101b4f:	50                   	push   %eax
  101b50:	68 50 8b 10 00       	push   $0x108b50
  101b55:	6a 01                	push   $0x1
  101b57:	e8 14 e6 ff ff       	call   100170 <write>
  101b5c:	83 c4 10             	add    $0x10,%esp
  101b5f:	83 7d f0 00          	cmpl   $0x0,-0x10(%ebp)
  101b63:	0f 85 fd 00 00 00    	jne    101c66 <testGetStatsReady+0x1aa>
  101b69:	83 ec 08             	sub    $0x8,%esp
  101b6c:	8d 45 d0             	lea    -0x30(%ebp),%eax
  101b6f:	50                   	push   %eax
  101b70:	ff 75 f4             	pushl  -0xc(%ebp)
  101b73:	e8 68 e6 ff ff       	call   1001e0 <get_stats>
  101b78:	83 c4 10             	add    $0x10,%esp
  101b7b:	89 45 ec             	mov    %eax,-0x14(%ebp)
  101b7e:	83 7d ec 00          	cmpl   $0x0,-0x14(%ebp)
  101b82:	79 53                	jns    101bd7 <testGetStatsReady+0x11b>
  101b84:	8b 45 08             	mov    0x8(%ebp),%eax
  101b87:	c7 80 88 00 00 00 02 	movl   $0x2,0x88(%eax)
  101b8e:	00 00 00 
  101b91:	e8 0a e6 ff ff       	call   1001a0 <perror>
  101b96:	8b 45 08             	mov    0x8(%ebp),%eax
  101b99:	c7 80 8c 00 00 00 6c 	movl   $0x108d6c,0x8c(%eax)
  101ba0:	8d 10 00 
  101ba3:	8b 45 08             	mov    0x8(%ebp),%eax
  101ba6:	8b 80 8c 00 00 00    	mov    0x8c(%eax),%eax
  101bac:	83 ec 0c             	sub    $0xc,%esp
  101baf:	50                   	push   %eax
  101bb0:	e8 d6 2f 00 00       	call   104b8b <proso_strlen>
  101bb5:	83 c4 10             	add    $0x10,%esp
  101bb8:	89 c2                	mov    %eax,%edx
  101bba:	8b 45 08             	mov    0x8(%ebp),%eax
  101bbd:	8b 80 8c 00 00 00    	mov    0x8c(%eax),%eax
  101bc3:	83 ec 04             	sub    $0x4,%esp
  101bc6:	52                   	push   %edx
  101bc7:	50                   	push   %eax
  101bc8:	6a 01                	push   $0x1
  101bca:	e8 a1 e5 ff ff       	call   100170 <write>
  101bcf:	83 c4 10             	add    $0x10,%esp
  101bd2:	e9 8f 00 00 00       	jmp    101c66 <testGetStatsReady+0x1aa>
  101bd7:	e8 34 e5 ff ff       	call   100110 <getpid>
  101bdc:	89 c2                	mov    %eax,%edx
  101bde:	83 ec 08             	sub    $0x8,%esp
  101be1:	8d 45 b4             	lea    -0x4c(%ebp),%eax
  101be4:	50                   	push   %eax
  101be5:	52                   	push   %edx
  101be6:	e8 f5 e5 ff ff       	call   1001e0 <get_stats>
  101beb:	83 c4 10             	add    $0x10,%esp
  101bee:	89 45 ec             	mov    %eax,-0x14(%ebp)
  101bf1:	83 7d ec 00          	cmpl   $0x0,-0x14(%ebp)
  101bf5:	78 6f                	js     101c66 <testGetStatsReady+0x1aa>
  101bf7:	83 ec 0c             	sub    $0xc,%esp
  101bfa:	8d 45 b4             	lea    -0x4c(%ebp),%eax
  101bfd:	50                   	push   %eax
  101bfe:	e8 c5 30 00 00       	call   104cc8 <get_tics>
  101c03:	83 c4 10             	add    $0x10,%esp
  101c06:	89 c3                	mov    %eax,%ebx
  101c08:	83 ec 0c             	sub    $0xc,%esp
  101c0b:	8d 45 d0             	lea    -0x30(%ebp),%eax
  101c0e:	50                   	push   %eax
  101c0f:	e8 b4 30 00 00       	call   104cc8 <get_tics>
  101c14:	83 c4 10             	add    $0x10,%esp
  101c17:	39 c3                	cmp    %eax,%ebx
  101c19:	72 4b                	jb     101c66 <testGetStatsReady+0x1aa>
  101c1b:	8b 45 08             	mov    0x8(%ebp),%eax
  101c1e:	c7 80 88 00 00 00 02 	movl   $0x2,0x88(%eax)
  101c25:	00 00 00 
  101c28:	8b 45 08             	mov    0x8(%ebp),%eax
  101c2b:	c7 80 8c 00 00 00 9c 	movl   $0x108d9c,0x8c(%eax)
  101c32:	8d 10 00 
  101c35:	8b 45 08             	mov    0x8(%ebp),%eax
  101c38:	8b 80 8c 00 00 00    	mov    0x8c(%eax),%eax
  101c3e:	83 ec 0c             	sub    $0xc,%esp
  101c41:	50                   	push   %eax
  101c42:	e8 44 2f 00 00       	call   104b8b <proso_strlen>
  101c47:	83 c4 10             	add    $0x10,%esp
  101c4a:	89 c2                	mov    %eax,%edx
  101c4c:	8b 45 08             	mov    0x8(%ebp),%eax
  101c4f:	8b 80 8c 00 00 00    	mov    0x8c(%eax),%eax
  101c55:	83 ec 04             	sub    $0x4,%esp
  101c58:	52                   	push   %edx
  101c59:	50                   	push   %eax
  101c5a:	6a 01                	push   $0x1
  101c5c:	e8 0f e5 ff ff       	call   100170 <write>
  101c61:	83 c4 10             	add    $0x10,%esp
  101c64:	eb 00                	jmp    101c66 <testGetStatsReady+0x1aa>
  101c66:	8b 5d fc             	mov    -0x4(%ebp),%ebx
  101c69:	c9                   	leave  
  101c6a:	c3                   	ret    

00101c6b <testGetStatsDead>:
  101c6b:	55                   	push   %ebp
  101c6c:	89 e5                	mov    %esp,%ebp
  101c6e:	83 ec 38             	sub    $0x38,%esp
  101c71:	83 ec 08             	sub    $0x8,%esp
  101c74:	6a 00                	push   $0x0
  101c76:	6a 00                	push   $0x0
  101c78:	e8 56 37 00 00       	call   1053d3 <zeos_sem_init>
  101c7d:	83 c4 10             	add    $0x10,%esp
  101c80:	e8 bb e4 ff ff       	call   100140 <fork>
  101c85:	89 45 f4             	mov    %eax,-0xc(%ebp)
  101c88:	83 7d f4 00          	cmpl   $0x0,-0xc(%ebp)
  101c8c:	79 53                	jns    101ce1 <testGetStatsDead+0x76>
  101c8e:	8b 45 08             	mov    0x8(%ebp),%eax
  101c91:	c7 80 88 00 00 00 02 	movl   $0x2,0x88(%eax)
  101c98:	00 00 00 
  101c9b:	e8 00 e5 ff ff       	call   1001a0 <perror>
  101ca0:	8b 45 08             	mov    0x8(%ebp),%eax
  101ca3:	c7 80 8c 00 00 00 40 	movl   $0x108d40,0x8c(%eax)
  101caa:	8d 10 00 
  101cad:	8b 45 08             	mov    0x8(%ebp),%eax
  101cb0:	8b 80 8c 00 00 00    	mov    0x8c(%eax),%eax
  101cb6:	83 ec 0c             	sub    $0xc,%esp
  101cb9:	50                   	push   %eax
  101cba:	e8 cc 2e 00 00       	call   104b8b <proso_strlen>
  101cbf:	83 c4 10             	add    $0x10,%esp
  101cc2:	89 c2                	mov    %eax,%edx
  101cc4:	8b 45 08             	mov    0x8(%ebp),%eax
  101cc7:	8b 80 8c 00 00 00    	mov    0x8c(%eax),%eax
  101ccd:	83 ec 04             	sub    $0x4,%esp
  101cd0:	52                   	push   %edx
  101cd1:	50                   	push   %eax
  101cd2:	6a 01                	push   $0x1
  101cd4:	e8 97 e4 ff ff       	call   100170 <write>
  101cd9:	83 c4 10             	add    $0x10,%esp
  101cdc:	e9 1f 01 00 00       	jmp    101e00 <testGetStatsDead+0x195>
  101ce1:	83 7d f4 00          	cmpl   $0x0,-0xc(%ebp)
  101ce5:	75 3a                	jne    101d21 <testGetStatsDead+0xb6>
  101ce7:	83 ec 0c             	sub    $0xc,%esp
  101cea:	6a 00                	push   $0x0
  101cec:	e8 31 37 00 00       	call   105422 <zeos_sem_signal>
  101cf1:	83 c4 10             	add    $0x10,%esp
  101cf4:	e8 17 e5 ff ff       	call   100210 <exit>
  101cf9:	83 ec 0c             	sub    $0xc,%esp
  101cfc:	68 50 8b 10 00       	push   $0x108b50
  101d01:	e8 85 2e 00 00       	call   104b8b <proso_strlen>
  101d06:	83 c4 10             	add    $0x10,%esp
  101d09:	83 ec 04             	sub    $0x4,%esp
  101d0c:	50                   	push   %eax
  101d0d:	68 50 8b 10 00       	push   $0x108b50
  101d12:	6a 01                	push   $0x1
  101d14:	e8 57 e4 ff ff       	call   100170 <write>
  101d19:	83 c4 10             	add    $0x10,%esp
  101d1c:	e9 df 00 00 00       	jmp    101e00 <testGetStatsDead+0x195>
  101d21:	83 ec 0c             	sub    $0xc,%esp
  101d24:	6a 00                	push   $0x0
  101d26:	e8 1d 37 00 00       	call   105448 <zeos_sem_wait>
  101d2b:	83 c4 10             	add    $0x10,%esp
  101d2e:	e8 e9 e4 ff ff       	call   10021c <delay>
  101d33:	83 ec 0c             	sub    $0xc,%esp
  101d36:	6a 00                	push   $0x0
  101d38:	e8 bf 36 00 00       	call   1053fc <zeos_sem_destroy>
  101d3d:	83 c4 10             	add    $0x10,%esp
  101d40:	83 ec 08             	sub    $0x8,%esp
  101d43:	8d 45 d4             	lea    -0x2c(%ebp),%eax
  101d46:	50                   	push   %eax
  101d47:	ff 75 f4             	pushl  -0xc(%ebp)
  101d4a:	e8 91 e4 ff ff       	call   1001e0 <get_stats>
  101d4f:	83 c4 10             	add    $0x10,%esp
  101d52:	89 45 f0             	mov    %eax,-0x10(%ebp)
  101d55:	83 7d f0 00          	cmpl   $0x0,-0x10(%ebp)
  101d59:	78 4b                	js     101da6 <testGetStatsDead+0x13b>
  101d5b:	8b 45 08             	mov    0x8(%ebp),%eax
  101d5e:	c7 80 88 00 00 00 02 	movl   $0x2,0x88(%eax)
  101d65:	00 00 00 
  101d68:	8b 45 08             	mov    0x8(%ebp),%eax
  101d6b:	c7 80 8c 00 00 00 c0 	movl   $0x108dc0,0x8c(%eax)
  101d72:	8d 10 00 
  101d75:	8b 45 08             	mov    0x8(%ebp),%eax
  101d78:	8b 80 8c 00 00 00    	mov    0x8c(%eax),%eax
  101d7e:	83 ec 0c             	sub    $0xc,%esp
  101d81:	50                   	push   %eax
  101d82:	e8 04 2e 00 00       	call   104b8b <proso_strlen>
  101d87:	83 c4 10             	add    $0x10,%esp
  101d8a:	89 c2                	mov    %eax,%edx
  101d8c:	8b 45 08             	mov    0x8(%ebp),%eax
  101d8f:	8b 80 8c 00 00 00    	mov    0x8c(%eax),%eax
  101d95:	83 ec 04             	sub    $0x4,%esp
  101d98:	52                   	push   %edx
  101d99:	50                   	push   %eax
  101d9a:	6a 01                	push   $0x1
  101d9c:	e8 cf e3 ff ff       	call   100170 <write>
  101da1:	83 c4 10             	add    $0x10,%esp
  101da4:	eb 5a                	jmp    101e00 <testGetStatsDead+0x195>
  101da6:	a1 c4 a4 10 00       	mov    0x10a4c4,%eax
  101dab:	83 f8 03             	cmp    $0x3,%eax
  101dae:	74 50                	je     101e00 <testGetStatsDead+0x195>
  101db0:	8b 45 08             	mov    0x8(%ebp),%eax
  101db3:	c7 80 88 00 00 00 01 	movl   $0x1,0x88(%eax)
  101dba:	00 00 00 
  101dbd:	e8 de e3 ff ff       	call   1001a0 <perror>
  101dc2:	8b 45 08             	mov    0x8(%ebp),%eax
  101dc5:	c7 80 8c 00 00 00 f8 	movl   $0x108df8,0x8c(%eax)
  101dcc:	8d 10 00 
  101dcf:	8b 45 08             	mov    0x8(%ebp),%eax
  101dd2:	8b 80 8c 00 00 00    	mov    0x8c(%eax),%eax
  101dd8:	83 ec 0c             	sub    $0xc,%esp
  101ddb:	50                   	push   %eax
  101ddc:	e8 aa 2d 00 00       	call   104b8b <proso_strlen>
  101de1:	83 c4 10             	add    $0x10,%esp
  101de4:	89 c2                	mov    %eax,%edx
  101de6:	8b 45 08             	mov    0x8(%ebp),%eax
  101de9:	8b 80 8c 00 00 00    	mov    0x8c(%eax),%eax
  101def:	83 ec 04             	sub    $0x4,%esp
  101df2:	52                   	push   %edx
  101df3:	50                   	push   %eax
  101df4:	6a 01                	push   $0x1
  101df6:	e8 75 e3 ff ff       	call   100170 <write>
  101dfb:	83 c4 10             	add    $0x10,%esp
  101dfe:	eb 00                	jmp    101e00 <testGetStatsDead+0x195>
  101e00:	c9                   	leave  
  101e01:	c3                   	ret    

00101e02 <testGetStatsBlocked>:
  101e02:	55                   	push   %ebp
  101e03:	89 e5                	mov    %esp,%ebp
  101e05:	83 ec 38             	sub    $0x38,%esp
  101e08:	c7 45 f4 00 00 00 00 	movl   $0x0,-0xc(%ebp)
  101e0f:	83 ec 08             	sub    $0x8,%esp
  101e12:	6a 00                	push   $0x0
  101e14:	6a 00                	push   $0x0
  101e16:	e8 b8 35 00 00       	call   1053d3 <zeos_sem_init>
  101e1b:	83 c4 10             	add    $0x10,%esp
  101e1e:	e8 1d e3 ff ff       	call   100140 <fork>
  101e23:	89 45 f0             	mov    %eax,-0x10(%ebp)
  101e26:	83 7d f0 00          	cmpl   $0x0,-0x10(%ebp)
  101e2a:	75 3a                	jne    101e66 <testGetStatsBlocked+0x64>
  101e2c:	83 ec 0c             	sub    $0xc,%esp
  101e2f:	6a 00                	push   $0x0
  101e31:	e8 12 36 00 00       	call   105448 <zeos_sem_wait>
  101e36:	83 c4 10             	add    $0x10,%esp
  101e39:	e8 d2 e3 ff ff       	call   100210 <exit>
  101e3e:	83 ec 0c             	sub    $0xc,%esp
  101e41:	68 50 8b 10 00       	push   $0x108b50
  101e46:	e8 40 2d 00 00       	call   104b8b <proso_strlen>
  101e4b:	83 c4 10             	add    $0x10,%esp
  101e4e:	83 ec 04             	sub    $0x4,%esp
  101e51:	50                   	push   %eax
  101e52:	68 50 8b 10 00       	push   $0x108b50
  101e57:	6a 01                	push   $0x1
  101e59:	e8 12 e3 ff ff       	call   100170 <write>
  101e5e:	83 c4 10             	add    $0x10,%esp
  101e61:	e9 ef 00 00 00       	jmp    101f55 <testGetStatsBlocked+0x153>
  101e66:	83 7d f0 00          	cmpl   $0x0,-0x10(%ebp)
  101e6a:	0f 8e 8a 00 00 00    	jle    101efa <testGetStatsBlocked+0xf8>
  101e70:	e8 a7 e3 ff ff       	call   10021c <delay>
  101e75:	83 ec 08             	sub    $0x8,%esp
  101e78:	8d 45 d0             	lea    -0x30(%ebp),%eax
  101e7b:	50                   	push   %eax
  101e7c:	ff 75 f0             	pushl  -0x10(%ebp)
  101e7f:	e8 5c e3 ff ff       	call   1001e0 <get_stats>
  101e84:	83 c4 10             	add    $0x10,%esp
  101e87:	89 45 ec             	mov    %eax,-0x14(%ebp)
  101e8a:	83 7d ec 00          	cmpl   $0x0,-0x14(%ebp)
  101e8e:	79 4e                	jns    101ede <testGetStatsBlocked+0xdc>
  101e90:	8b 45 08             	mov    0x8(%ebp),%eax
  101e93:	c7 80 88 00 00 00 02 	movl   $0x2,0x88(%eax)
  101e9a:	00 00 00 
  101e9d:	e8 fe e2 ff ff       	call   1001a0 <perror>
  101ea2:	8b 45 08             	mov    0x8(%ebp),%eax
  101ea5:	c7 80 8c 00 00 00 48 	movl   $0x108e48,0x8c(%eax)
  101eac:	8e 10 00 
  101eaf:	8b 45 08             	mov    0x8(%ebp),%eax
  101eb2:	8b 80 8c 00 00 00    	mov    0x8c(%eax),%eax
  101eb8:	83 ec 0c             	sub    $0xc,%esp
  101ebb:	50                   	push   %eax
  101ebc:	e8 ca 2c 00 00       	call   104b8b <proso_strlen>
  101ec1:	83 c4 10             	add    $0x10,%esp
  101ec4:	89 c2                	mov    %eax,%edx
  101ec6:	8b 45 08             	mov    0x8(%ebp),%eax
  101ec9:	8b 80 8c 00 00 00    	mov    0x8c(%eax),%eax
  101ecf:	83 ec 04             	sub    $0x4,%esp
  101ed2:	52                   	push   %edx
  101ed3:	50                   	push   %eax
  101ed4:	6a 01                	push   $0x1
  101ed6:	e8 95 e2 ff ff       	call   100170 <write>
  101edb:	83 c4 10             	add    $0x10,%esp
  101ede:	83 ec 0c             	sub    $0xc,%esp
  101ee1:	6a 00                	push   $0x0
  101ee3:	e8 3a 35 00 00       	call   105422 <zeos_sem_signal>
  101ee8:	83 c4 10             	add    $0x10,%esp
  101eeb:	83 ec 0c             	sub    $0xc,%esp
  101eee:	6a 00                	push   $0x0
  101ef0:	e8 07 35 00 00       	call   1053fc <zeos_sem_destroy>
  101ef5:	83 c4 10             	add    $0x10,%esp
  101ef8:	eb 5b                	jmp    101f55 <testGetStatsBlocked+0x153>
  101efa:	8b 45 08             	mov    0x8(%ebp),%eax
  101efd:	c7 80 88 00 00 00 02 	movl   $0x2,0x88(%eax)
  101f04:	00 00 00 
  101f07:	e8 94 e2 ff ff       	call   1001a0 <perror>
  101f0c:	8b 45 08             	mov    0x8(%ebp),%eax
  101f0f:	c7 80 8c 00 00 00 40 	movl   $0x108d40,0x8c(%eax)
  101f16:	8d 10 00 
  101f19:	8b 45 08             	mov    0x8(%ebp),%eax
  101f1c:	8b 80 8c 00 00 00    	mov    0x8c(%eax),%eax
  101f22:	83 ec 0c             	sub    $0xc,%esp
  101f25:	50                   	push   %eax
  101f26:	e8 60 2c 00 00       	call   104b8b <proso_strlen>
  101f2b:	83 c4 10             	add    $0x10,%esp
  101f2e:	89 c2                	mov    %eax,%edx
  101f30:	8b 45 08             	mov    0x8(%ebp),%eax
  101f33:	8b 80 8c 00 00 00    	mov    0x8c(%eax),%eax
  101f39:	83 ec 04             	sub    $0x4,%esp
  101f3c:	52                   	push   %edx
  101f3d:	50                   	push   %eax
  101f3e:	6a 01                	push   $0x1
  101f40:	e8 2b e2 ff ff       	call   100170 <write>
  101f45:	83 c4 10             	add    $0x10,%esp
  101f48:	83 ec 0c             	sub    $0xc,%esp
  101f4b:	6a 00                	push   $0x0
  101f4d:	e8 aa 34 00 00       	call   1053fc <zeos_sem_destroy>
  101f52:	83 c4 10             	add    $0x10,%esp
  101f55:	c9                   	leave  
  101f56:	c3                   	ret    

00101f57 <testAccountCS>:
  101f57:	55                   	push   %ebp
  101f58:	89 e5                	mov    %esp,%ebp
  101f5a:	53                   	push   %ebx
  101f5b:	81 ec 24 01 00 00    	sub    $0x124,%esp
  101f61:	b9 00 00 00 00       	mov    $0x0,%ecx
  101f66:	b8 1c 00 00 00       	mov    $0x1c,%eax
  101f6b:	83 e0 fc             	and    $0xfffffffc,%eax
  101f6e:	89 c2                	mov    %eax,%edx
  101f70:	b8 00 00 00 00       	mov    $0x0,%eax
  101f75:	89 4c 05 c8          	mov    %ecx,-0x38(%ebp,%eax,1)
  101f79:	83 c0 04             	add    $0x4,%eax
  101f7c:	39 d0                	cmp    %edx,%eax
  101f7e:	72 f5                	jb     101f75 <testAccountCS+0x1e>
  101f80:	b9 00 00 00 00       	mov    $0x0,%ecx
  101f85:	b8 1c 00 00 00       	mov    $0x1c,%eax
  101f8a:	83 e0 fc             	and    $0xfffffffc,%eax
  101f8d:	89 c2                	mov    %eax,%edx
  101f8f:	b8 00 00 00 00       	mov    $0x0,%eax
  101f94:	89 4c 05 ac          	mov    %ecx,-0x54(%ebp,%eax,1)
  101f98:	83 c0 04             	add    $0x4,%eax
  101f9b:	39 d0                	cmp    %edx,%eax
  101f9d:	72 f5                	jb     101f94 <testAccountCS+0x3d>
  101f9f:	c7 45 f4 00 00 00 00 	movl   $0x0,-0xc(%ebp)
  101fa6:	83 ec 08             	sub    $0x8,%esp
  101fa9:	6a 00                	push   $0x0
  101fab:	6a 00                	push   $0x0
  101fad:	e8 21 34 00 00       	call   1053d3 <zeos_sem_init>
  101fb2:	83 c4 10             	add    $0x10,%esp
  101fb5:	89 45 f0             	mov    %eax,-0x10(%ebp)
  101fb8:	83 7d f0 00          	cmpl   $0x0,-0x10(%ebp)
  101fbc:	79 58                	jns    102016 <testAccountCS+0xbf>
  101fbe:	8b 45 08             	mov    0x8(%ebp),%eax
  101fc1:	c7 80 88 00 00 00 02 	movl   $0x2,0x88(%eax)
  101fc8:	00 00 00 
  101fcb:	e8 d0 e1 ff ff       	call   1001a0 <perror>
  101fd0:	8b 45 08             	mov    0x8(%ebp),%eax
  101fd3:	c7 80 8c 00 00 00 88 	movl   $0x108e88,0x8c(%eax)
  101fda:	8e 10 00 
  101fdd:	8b 45 08             	mov    0x8(%ebp),%eax
  101fe0:	8b 80 8c 00 00 00    	mov    0x8c(%eax),%eax
  101fe6:	83 ec 0c             	sub    $0xc,%esp
  101fe9:	50                   	push   %eax
  101fea:	e8 9c 2b 00 00       	call   104b8b <proso_strlen>
  101fef:	83 c4 10             	add    $0x10,%esp
  101ff2:	89 c2                	mov    %eax,%edx
  101ff4:	8b 45 08             	mov    0x8(%ebp),%eax
  101ff7:	8b 80 8c 00 00 00    	mov    0x8c(%eax),%eax
  101ffd:	83 ec 04             	sub    $0x4,%esp
  102000:	52                   	push   %edx
  102001:	50                   	push   %eax
  102002:	6a 01                	push   $0x1
  102004:	e8 67 e1 ff ff       	call   100170 <write>
  102009:	83 c4 10             	add    $0x10,%esp
  10200c:	b8 ff ff ff ff       	mov    $0xffffffff,%eax
  102011:	e9 52 06 00 00       	jmp    102668 <testAccountCS+0x711>
  102016:	83 ec 08             	sub    $0x8,%esp
  102019:	6a 00                	push   $0x0
  10201b:	6a 01                	push   $0x1
  10201d:	e8 b1 33 00 00       	call   1053d3 <zeos_sem_init>
  102022:	83 c4 10             	add    $0x10,%esp
  102025:	89 45 f0             	mov    %eax,-0x10(%ebp)
  102028:	83 7d f0 00          	cmpl   $0x0,-0x10(%ebp)
  10202c:	79 58                	jns    102086 <testAccountCS+0x12f>
  10202e:	8b 45 08             	mov    0x8(%ebp),%eax
  102031:	c7 80 88 00 00 00 02 	movl   $0x2,0x88(%eax)
  102038:	00 00 00 
  10203b:	e8 60 e1 ff ff       	call   1001a0 <perror>
  102040:	8b 45 08             	mov    0x8(%ebp),%eax
  102043:	c7 80 8c 00 00 00 b8 	movl   $0x108eb8,0x8c(%eax)
  10204a:	8e 10 00 
  10204d:	8b 45 08             	mov    0x8(%ebp),%eax
  102050:	8b 80 8c 00 00 00    	mov    0x8c(%eax),%eax
  102056:	83 ec 0c             	sub    $0xc,%esp
  102059:	50                   	push   %eax
  10205a:	e8 2c 2b 00 00       	call   104b8b <proso_strlen>
  10205f:	83 c4 10             	add    $0x10,%esp
  102062:	89 c2                	mov    %eax,%edx
  102064:	8b 45 08             	mov    0x8(%ebp),%eax
  102067:	8b 80 8c 00 00 00    	mov    0x8c(%eax),%eax
  10206d:	83 ec 04             	sub    $0x4,%esp
  102070:	52                   	push   %edx
  102071:	50                   	push   %eax
  102072:	6a 01                	push   $0x1
  102074:	e8 f7 e0 ff ff       	call   100170 <write>
  102079:	83 c4 10             	add    $0x10,%esp
  10207c:	b8 ff ff ff ff       	mov    $0xffffffff,%eax
  102081:	e9 e2 05 00 00       	jmp    102668 <testAccountCS+0x711>
  102086:	e8 b5 e0 ff ff       	call   100140 <fork>
  10208b:	89 45 ec             	mov    %eax,-0x14(%ebp)
  10208e:	83 7d ec 00          	cmpl   $0x0,-0x14(%ebp)
  102092:	79 58                	jns    1020ec <testAccountCS+0x195>
  102094:	8b 45 08             	mov    0x8(%ebp),%eax
  102097:	c7 80 88 00 00 00 02 	movl   $0x2,0x88(%eax)
  10209e:	00 00 00 
  1020a1:	e8 fa e0 ff ff       	call   1001a0 <perror>
  1020a6:	8b 45 08             	mov    0x8(%ebp),%eax
  1020a9:	c7 80 8c 00 00 00 e8 	movl   $0x108ee8,0x8c(%eax)
  1020b0:	8e 10 00 
  1020b3:	8b 45 08             	mov    0x8(%ebp),%eax
  1020b6:	8b 80 8c 00 00 00    	mov    0x8c(%eax),%eax
  1020bc:	83 ec 0c             	sub    $0xc,%esp
  1020bf:	50                   	push   %eax
  1020c0:	e8 c6 2a 00 00       	call   104b8b <proso_strlen>
  1020c5:	83 c4 10             	add    $0x10,%esp
  1020c8:	89 c2                	mov    %eax,%edx
  1020ca:	8b 45 08             	mov    0x8(%ebp),%eax
  1020cd:	8b 80 8c 00 00 00    	mov    0x8c(%eax),%eax
  1020d3:	83 ec 04             	sub    $0x4,%esp
  1020d6:	52                   	push   %edx
  1020d7:	50                   	push   %eax
  1020d8:	6a 01                	push   $0x1
  1020da:	e8 91 e0 ff ff       	call   100170 <write>
  1020df:	83 c4 10             	add    $0x10,%esp
  1020e2:	b8 ff ff ff ff       	mov    $0xffffffff,%eax
  1020e7:	e9 7c 05 00 00       	jmp    102668 <testAccountCS+0x711>
  1020ec:	83 7d ec 00          	cmpl   $0x0,-0x14(%ebp)
  1020f0:	0f 85 1b 01 00 00    	jne    102211 <testAccountCS+0x2ba>
  1020f6:	83 ec 0c             	sub    $0xc,%esp
  1020f9:	6a 01                	push   $0x1
  1020fb:	e8 48 33 00 00       	call   105448 <zeos_sem_wait>
  102100:	83 c4 10             	add    $0x10,%esp
  102103:	89 45 f0             	mov    %eax,-0x10(%ebp)
  102106:	83 7d f0 00          	cmpl   $0x0,-0x10(%ebp)
  10210a:	79 41                	jns    10214d <testAccountCS+0x1f6>
  10210c:	e8 8f e0 ff ff       	call   1001a0 <perror>
  102111:	8b 45 08             	mov    0x8(%ebp),%eax
  102114:	c7 80 8c 00 00 00 10 	movl   $0x108f10,0x8c(%eax)
  10211b:	8f 10 00 
  10211e:	8b 45 08             	mov    0x8(%ebp),%eax
  102121:	8b 80 8c 00 00 00    	mov    0x8c(%eax),%eax
  102127:	83 ec 0c             	sub    $0xc,%esp
  10212a:	50                   	push   %eax
  10212b:	e8 5b 2a 00 00       	call   104b8b <proso_strlen>
  102130:	83 c4 10             	add    $0x10,%esp
  102133:	89 c2                	mov    %eax,%edx
  102135:	8b 45 08             	mov    0x8(%ebp),%eax
  102138:	8b 80 8c 00 00 00    	mov    0x8c(%eax),%eax
  10213e:	83 ec 04             	sub    $0x4,%esp
  102141:	52                   	push   %edx
  102142:	50                   	push   %eax
  102143:	6a 01                	push   $0x1
  102145:	e8 26 e0 ff ff       	call   100170 <write>
  10214a:	83 c4 10             	add    $0x10,%esp
  10214d:	83 ec 0c             	sub    $0xc,%esp
  102150:	6a 00                	push   $0x0
  102152:	e8 cb 32 00 00       	call   105422 <zeos_sem_signal>
  102157:	83 c4 10             	add    $0x10,%esp
  10215a:	89 45 f0             	mov    %eax,-0x10(%ebp)
  10215d:	83 7d f0 00          	cmpl   $0x0,-0x10(%ebp)
  102161:	79 41                	jns    1021a4 <testAccountCS+0x24d>
  102163:	e8 38 e0 ff ff       	call   1001a0 <perror>
  102168:	8b 45 08             	mov    0x8(%ebp),%eax
  10216b:	c7 80 8c 00 00 00 4c 	movl   $0x108f4c,0x8c(%eax)
  102172:	8f 10 00 
  102175:	8b 45 08             	mov    0x8(%ebp),%eax
  102178:	8b 80 8c 00 00 00    	mov    0x8c(%eax),%eax
  10217e:	83 ec 0c             	sub    $0xc,%esp
  102181:	50                   	push   %eax
  102182:	e8 04 2a 00 00       	call   104b8b <proso_strlen>
  102187:	83 c4 10             	add    $0x10,%esp
  10218a:	89 c2                	mov    %eax,%edx
  10218c:	8b 45 08             	mov    0x8(%ebp),%eax
  10218f:	8b 80 8c 00 00 00    	mov    0x8c(%eax),%eax
  102195:	83 ec 04             	sub    $0x4,%esp
  102198:	52                   	push   %edx
  102199:	50                   	push   %eax
  10219a:	6a 01                	push   $0x1
  10219c:	e8 cf df ff ff       	call   100170 <write>
  1021a1:	83 c4 10             	add    $0x10,%esp
  1021a4:	83 ec 0c             	sub    $0xc,%esp
  1021a7:	6a 01                	push   $0x1
  1021a9:	e8 9a 32 00 00       	call   105448 <zeos_sem_wait>
  1021ae:	83 c4 10             	add    $0x10,%esp
  1021b1:	89 45 f0             	mov    %eax,-0x10(%ebp)
  1021b4:	83 ec 0c             	sub    $0xc,%esp
  1021b7:	6a 00                	push   $0x0
  1021b9:	e8 64 32 00 00       	call   105422 <zeos_sem_signal>
  1021be:	83 c4 10             	add    $0x10,%esp
  1021c1:	89 45 f0             	mov    %eax,-0x10(%ebp)
  1021c4:	83 ec 0c             	sub    $0xc,%esp
  1021c7:	6a 01                	push   $0x1
  1021c9:	e8 7a 32 00 00       	call   105448 <zeos_sem_wait>
  1021ce:	83 c4 10             	add    $0x10,%esp
  1021d1:	89 45 f0             	mov    %eax,-0x10(%ebp)
  1021d4:	83 ec 0c             	sub    $0xc,%esp
  1021d7:	6a 00                	push   $0x0
  1021d9:	e8 44 32 00 00       	call   105422 <zeos_sem_signal>
  1021de:	83 c4 10             	add    $0x10,%esp
  1021e1:	89 45 f0             	mov    %eax,-0x10(%ebp)
  1021e4:	e8 27 e0 ff ff       	call   100210 <exit>
  1021e9:	83 ec 0c             	sub    $0xc,%esp
  1021ec:	68 50 8b 10 00       	push   $0x108b50
  1021f1:	e8 95 29 00 00       	call   104b8b <proso_strlen>
  1021f6:	83 c4 10             	add    $0x10,%esp
  1021f9:	83 ec 04             	sub    $0x4,%esp
  1021fc:	50                   	push   %eax
  1021fd:	68 50 8b 10 00       	push   $0x108b50
  102202:	6a 01                	push   $0x1
  102204:	e8 67 df ff ff       	call   100170 <write>
  102209:	83 c4 10             	add    $0x10,%esp
  10220c:	e9 3d 04 00 00       	jmp    10264e <testAccountCS+0x6f7>
  102211:	83 ec 0c             	sub    $0xc,%esp
  102214:	6a 01                	push   $0x1
  102216:	e8 07 32 00 00       	call   105422 <zeos_sem_signal>
  10221b:	83 c4 10             	add    $0x10,%esp
  10221e:	89 45 f0             	mov    %eax,-0x10(%ebp)
  102221:	83 7d f0 00          	cmpl   $0x0,-0x10(%ebp)
  102225:	79 41                	jns    102268 <testAccountCS+0x311>
  102227:	e8 74 df ff ff       	call   1001a0 <perror>
  10222c:	8b 45 08             	mov    0x8(%ebp),%eax
  10222f:	c7 80 8c 00 00 00 8c 	movl   $0x108f8c,0x8c(%eax)
  102236:	8f 10 00 
  102239:	8b 45 08             	mov    0x8(%ebp),%eax
  10223c:	8b 80 8c 00 00 00    	mov    0x8c(%eax),%eax
  102242:	83 ec 0c             	sub    $0xc,%esp
  102245:	50                   	push   %eax
  102246:	e8 40 29 00 00       	call   104b8b <proso_strlen>
  10224b:	83 c4 10             	add    $0x10,%esp
  10224e:	89 c2                	mov    %eax,%edx
  102250:	8b 45 08             	mov    0x8(%ebp),%eax
  102253:	8b 80 8c 00 00 00    	mov    0x8c(%eax),%eax
  102259:	83 ec 04             	sub    $0x4,%esp
  10225c:	52                   	push   %edx
  10225d:	50                   	push   %eax
  10225e:	6a 01                	push   $0x1
  102260:	e8 0b df ff ff       	call   100170 <write>
  102265:	83 c4 10             	add    $0x10,%esp
  102268:	83 ec 0c             	sub    $0xc,%esp
  10226b:	6a 00                	push   $0x0
  10226d:	e8 d6 31 00 00       	call   105448 <zeos_sem_wait>
  102272:	83 c4 10             	add    $0x10,%esp
  102275:	89 45 f0             	mov    %eax,-0x10(%ebp)
  102278:	83 7d f0 00          	cmpl   $0x0,-0x10(%ebp)
  10227c:	79 41                	jns    1022bf <testAccountCS+0x368>
  10227e:	e8 1d df ff ff       	call   1001a0 <perror>
  102283:	8b 45 08             	mov    0x8(%ebp),%eax
  102286:	c7 80 8c 00 00 00 cc 	movl   $0x108fcc,0x8c(%eax)
  10228d:	8f 10 00 
  102290:	8b 45 08             	mov    0x8(%ebp),%eax
  102293:	8b 80 8c 00 00 00    	mov    0x8c(%eax),%eax
  102299:	83 ec 0c             	sub    $0xc,%esp
  10229c:	50                   	push   %eax
  10229d:	e8 e9 28 00 00       	call   104b8b <proso_strlen>
  1022a2:	83 c4 10             	add    $0x10,%esp
  1022a5:	89 c2                	mov    %eax,%edx
  1022a7:	8b 45 08             	mov    0x8(%ebp),%eax
  1022aa:	8b 80 8c 00 00 00    	mov    0x8c(%eax),%eax
  1022b0:	83 ec 04             	sub    $0x4,%esp
  1022b3:	52                   	push   %edx
  1022b4:	50                   	push   %eax
  1022b5:	6a 01                	push   $0x1
  1022b7:	e8 b4 de ff ff       	call   100170 <write>
  1022bc:	83 c4 10             	add    $0x10,%esp
  1022bf:	e8 4c de ff ff       	call   100110 <getpid>
  1022c4:	89 c2                	mov    %eax,%edx
  1022c6:	83 ec 08             	sub    $0x8,%esp
  1022c9:	8d 45 c8             	lea    -0x38(%ebp),%eax
  1022cc:	50                   	push   %eax
  1022cd:	52                   	push   %edx
  1022ce:	e8 0d df ff ff       	call   1001e0 <get_stats>
  1022d3:	83 c4 10             	add    $0x10,%esp
  1022d6:	89 45 f0             	mov    %eax,-0x10(%ebp)
  1022d9:	83 7d f0 00          	cmpl   $0x0,-0x10(%ebp)
  1022dd:	79 58                	jns    102337 <testAccountCS+0x3e0>
  1022df:	8b 45 08             	mov    0x8(%ebp),%eax
  1022e2:	c7 80 88 00 00 00 02 	movl   $0x2,0x88(%eax)
  1022e9:	00 00 00 
  1022ec:	e8 af de ff ff       	call   1001a0 <perror>
  1022f1:	8b 45 08             	mov    0x8(%ebp),%eax
  1022f4:	c7 80 8c 00 00 00 08 	movl   $0x109008,0x8c(%eax)
  1022fb:	90 10 00 
  1022fe:	8b 45 08             	mov    0x8(%ebp),%eax
  102301:	8b 80 8c 00 00 00    	mov    0x8c(%eax),%eax
  102307:	83 ec 0c             	sub    $0xc,%esp
  10230a:	50                   	push   %eax
  10230b:	e8 7b 28 00 00       	call   104b8b <proso_strlen>
  102310:	83 c4 10             	add    $0x10,%esp
  102313:	89 c2                	mov    %eax,%edx
  102315:	8b 45 08             	mov    0x8(%ebp),%eax
  102318:	8b 80 8c 00 00 00    	mov    0x8c(%eax),%eax
  10231e:	83 ec 04             	sub    $0x4,%esp
  102321:	52                   	push   %edx
  102322:	50                   	push   %eax
  102323:	6a 01                	push   $0x1
  102325:	e8 46 de ff ff       	call   100170 <write>
  10232a:	83 c4 10             	add    $0x10,%esp
  10232d:	b8 ff ff ff ff       	mov    $0xffffffff,%eax
  102332:	e9 31 03 00 00       	jmp    102668 <testAccountCS+0x711>
  102337:	83 ec 0c             	sub    $0xc,%esp
  10233a:	8d 45 c8             	lea    -0x38(%ebp),%eax
  10233d:	50                   	push   %eax
  10233e:	e8 8f 29 00 00       	call   104cd2 <get_cs>
  102343:	83 c4 10             	add    $0x10,%esp
  102346:	89 45 e8             	mov    %eax,-0x18(%ebp)
  102349:	83 ec 0c             	sub    $0xc,%esp
  10234c:	6a 01                	push   $0x1
  10234e:	e8 cf 30 00 00       	call   105422 <zeos_sem_signal>
  102353:	83 c4 10             	add    $0x10,%esp
  102356:	89 45 f0             	mov    %eax,-0x10(%ebp)
  102359:	83 ec 0c             	sub    $0xc,%esp
  10235c:	68 2a 90 10 00       	push   $0x10902a
  102361:	e8 25 28 00 00       	call   104b8b <proso_strlen>
  102366:	83 c4 10             	add    $0x10,%esp
  102369:	83 ec 04             	sub    $0x4,%esp
  10236c:	50                   	push   %eax
  10236d:	68 2a 90 10 00       	push   $0x10902a
  102372:	6a 01                	push   $0x1
  102374:	e8 f7 dd ff ff       	call   100170 <write>
  102379:	83 c4 10             	add    $0x10,%esp
  10237c:	83 ec 0c             	sub    $0xc,%esp
  10237f:	6a 00                	push   $0x0
  102381:	e8 c2 30 00 00       	call   105448 <zeos_sem_wait>
  102386:	83 c4 10             	add    $0x10,%esp
  102389:	89 45 f0             	mov    %eax,-0x10(%ebp)
  10238c:	83 ec 0c             	sub    $0xc,%esp
  10238f:	6a 01                	push   $0x1
  102391:	e8 8c 30 00 00       	call   105422 <zeos_sem_signal>
  102396:	83 c4 10             	add    $0x10,%esp
  102399:	89 45 f0             	mov    %eax,-0x10(%ebp)
  10239c:	83 ec 0c             	sub    $0xc,%esp
  10239f:	68 38 90 10 00       	push   $0x109038
  1023a4:	e8 e2 27 00 00       	call   104b8b <proso_strlen>
  1023a9:	83 c4 10             	add    $0x10,%esp
  1023ac:	83 ec 04             	sub    $0x4,%esp
  1023af:	50                   	push   %eax
  1023b0:	68 38 90 10 00       	push   $0x109038
  1023b5:	6a 01                	push   $0x1
  1023b7:	e8 b4 dd ff ff       	call   100170 <write>
  1023bc:	83 c4 10             	add    $0x10,%esp
  1023bf:	83 ec 0c             	sub    $0xc,%esp
  1023c2:	6a 00                	push   $0x0
  1023c4:	e8 7f 30 00 00       	call   105448 <zeos_sem_wait>
  1023c9:	83 c4 10             	add    $0x10,%esp
  1023cc:	89 45 f0             	mov    %eax,-0x10(%ebp)
  1023cf:	e8 3c dd ff ff       	call   100110 <getpid>
  1023d4:	89 c2                	mov    %eax,%edx
  1023d6:	83 ec 08             	sub    $0x8,%esp
  1023d9:	8d 45 c8             	lea    -0x38(%ebp),%eax
  1023dc:	50                   	push   %eax
  1023dd:	52                   	push   %edx
  1023de:	e8 fd dd ff ff       	call   1001e0 <get_stats>
  1023e3:	83 c4 10             	add    $0x10,%esp
  1023e6:	89 45 f0             	mov    %eax,-0x10(%ebp)
  1023e9:	83 ec 0c             	sub    $0xc,%esp
  1023ec:	8d 45 c8             	lea    -0x38(%ebp),%eax
  1023ef:	50                   	push   %eax
  1023f0:	e8 dd 28 00 00       	call   104cd2 <get_cs>
  1023f5:	83 c4 10             	add    $0x10,%esp
  1023f8:	89 45 e4             	mov    %eax,-0x1c(%ebp)
  1023fb:	83 ec 0c             	sub    $0xc,%esp
  1023fe:	68 48 90 10 00       	push   $0x109048
  102403:	e8 83 27 00 00       	call   104b8b <proso_strlen>
  102408:	83 c4 10             	add    $0x10,%esp
  10240b:	83 ec 04             	sub    $0x4,%esp
  10240e:	50                   	push   %eax
  10240f:	68 48 90 10 00       	push   $0x109048
  102414:	6a 01                	push   $0x1
  102416:	e8 55 dd ff ff       	call   100170 <write>
  10241b:	83 c4 10             	add    $0x10,%esp
  10241e:	8b 45 e8             	mov    -0x18(%ebp),%eax
  102421:	83 ec 08             	sub    $0x8,%esp
  102424:	8d 95 48 ff ff ff    	lea    -0xb8(%ebp),%edx
  10242a:	52                   	push   %edx
  10242b:	50                   	push   %eax
  10242c:	e8 d2 27 00 00       	call   104c03 <proso_itoa>
  102431:	83 c4 10             	add    $0x10,%esp
  102434:	83 ec 0c             	sub    $0xc,%esp
  102437:	50                   	push   %eax
  102438:	e8 4e 27 00 00       	call   104b8b <proso_strlen>
  10243d:	83 c4 10             	add    $0x10,%esp
  102440:	89 c3                	mov    %eax,%ebx
  102442:	8b 45 e8             	mov    -0x18(%ebp),%eax
  102445:	83 ec 08             	sub    $0x8,%esp
  102448:	8d 95 48 ff ff ff    	lea    -0xb8(%ebp),%edx
  10244e:	52                   	push   %edx
  10244f:	50                   	push   %eax
  102450:	e8 ae 27 00 00       	call   104c03 <proso_itoa>
  102455:	83 c4 10             	add    $0x10,%esp
  102458:	83 ec 04             	sub    $0x4,%esp
  10245b:	53                   	push   %ebx
  10245c:	50                   	push   %eax
  10245d:	6a 01                	push   $0x1
  10245f:	e8 0c dd ff ff       	call   100170 <write>
  102464:	83 c4 10             	add    $0x10,%esp
  102467:	83 ec 0c             	sub    $0xc,%esp
  10246a:	68 6c 90 10 00       	push   $0x10906c
  10246f:	e8 17 27 00 00       	call   104b8b <proso_strlen>
  102474:	83 c4 10             	add    $0x10,%esp
  102477:	83 ec 04             	sub    $0x4,%esp
  10247a:	50                   	push   %eax
  10247b:	68 6c 90 10 00       	push   $0x10906c
  102480:	6a 01                	push   $0x1
  102482:	e8 e9 dc ff ff       	call   100170 <write>
  102487:	83 c4 10             	add    $0x10,%esp
  10248a:	8b 45 e4             	mov    -0x1c(%ebp),%eax
  10248d:	83 ec 08             	sub    $0x8,%esp
  102490:	8d 95 48 ff ff ff    	lea    -0xb8(%ebp),%edx
  102496:	52                   	push   %edx
  102497:	50                   	push   %eax
  102498:	e8 66 27 00 00       	call   104c03 <proso_itoa>
  10249d:	83 c4 10             	add    $0x10,%esp
  1024a0:	83 ec 0c             	sub    $0xc,%esp
  1024a3:	50                   	push   %eax
  1024a4:	e8 e2 26 00 00       	call   104b8b <proso_strlen>
  1024a9:	83 c4 10             	add    $0x10,%esp
  1024ac:	89 c3                	mov    %eax,%ebx
  1024ae:	8b 45 e4             	mov    -0x1c(%ebp),%eax
  1024b1:	83 ec 08             	sub    $0x8,%esp
  1024b4:	8d 95 48 ff ff ff    	lea    -0xb8(%ebp),%edx
  1024ba:	52                   	push   %edx
  1024bb:	50                   	push   %eax
  1024bc:	e8 42 27 00 00       	call   104c03 <proso_itoa>
  1024c1:	83 c4 10             	add    $0x10,%esp
  1024c4:	83 ec 04             	sub    $0x4,%esp
  1024c7:	53                   	push   %ebx
  1024c8:	50                   	push   %eax
  1024c9:	6a 01                	push   $0x1
  1024cb:	e8 a0 dc ff ff       	call   100170 <write>
  1024d0:	83 c4 10             	add    $0x10,%esp
  1024d3:	83 ec 0c             	sub    $0xc,%esp
  1024d6:	68 d2 8c 10 00       	push   $0x108cd2
  1024db:	e8 ab 26 00 00       	call   104b8b <proso_strlen>
  1024e0:	83 c4 10             	add    $0x10,%esp
  1024e3:	83 ec 04             	sub    $0x4,%esp
  1024e6:	50                   	push   %eax
  1024e7:	68 d2 8c 10 00       	push   $0x108cd2
  1024ec:	6a 01                	push   $0x1
  1024ee:	e8 7d dc ff ff       	call   100170 <write>
  1024f3:	83 c4 10             	add    $0x10,%esp
  1024f6:	8b 45 e4             	mov    -0x1c(%ebp),%eax
  1024f9:	2b 45 e8             	sub    -0x18(%ebp),%eax
  1024fc:	83 f8 01             	cmp    $0x1,%eax
  1024ff:	77 4e                	ja     10254f <testAccountCS+0x5f8>
  102501:	8b 45 08             	mov    0x8(%ebp),%eax
  102504:	c7 80 88 00 00 00 02 	movl   $0x2,0x88(%eax)
  10250b:	00 00 00 
  10250e:	8b 45 08             	mov    0x8(%ebp),%eax
  102511:	c7 80 8c 00 00 00 90 	movl   $0x109090,0x8c(%eax)
  102518:	90 10 00 
  10251b:	8b 45 08             	mov    0x8(%ebp),%eax
  10251e:	8b 80 8c 00 00 00    	mov    0x8c(%eax),%eax
  102524:	83 ec 0c             	sub    $0xc,%esp
  102527:	50                   	push   %eax
  102528:	e8 5e 26 00 00       	call   104b8b <proso_strlen>
  10252d:	83 c4 10             	add    $0x10,%esp
  102530:	89 c2                	mov    %eax,%edx
  102532:	8b 45 08             	mov    0x8(%ebp),%eax
  102535:	8b 80 8c 00 00 00    	mov    0x8c(%eax),%eax
  10253b:	83 ec 04             	sub    $0x4,%esp
  10253e:	52                   	push   %edx
  10253f:	50                   	push   %eax
  102540:	6a 01                	push   $0x1
  102542:	e8 29 dc ff ff       	call   100170 <write>
  102547:	83 c4 10             	add    $0x10,%esp
  10254a:	e9 ff 00 00 00       	jmp    10264e <testAccountCS+0x6f7>
  10254f:	8b 45 e4             	mov    -0x1c(%ebp),%eax
  102552:	2b 45 e8             	sub    -0x18(%ebp),%eax
  102555:	83 f8 02             	cmp    $0x2,%eax
  102558:	75 12                	jne    10256c <testAccountCS+0x615>
  10255a:	8b 45 08             	mov    0x8(%ebp),%eax
  10255d:	c7 80 88 00 00 00 00 	movl   $0x0,0x88(%eax)
  102564:	00 00 00 
  102567:	e9 e2 00 00 00       	jmp    10264e <testAccountCS+0x6f7>
  10256c:	8b 45 08             	mov    0x8(%ebp),%eax
  10256f:	c7 80 88 00 00 00 01 	movl   $0x1,0x88(%eax)
  102576:	00 00 00 
  102579:	83 ec 0c             	sub    $0xc,%esp
  10257c:	68 c4 90 10 00       	push   $0x1090c4
  102581:	e8 05 26 00 00       	call   104b8b <proso_strlen>
  102586:	83 c4 10             	add    $0x10,%esp
  102589:	83 ec 04             	sub    $0x4,%esp
  10258c:	50                   	push   %eax
  10258d:	68 c4 90 10 00       	push   $0x1090c4
  102592:	6a 01                	push   $0x1
  102594:	e8 d7 db ff ff       	call   100170 <write>
  102599:	83 c4 10             	add    $0x10,%esp
  10259c:	8b 45 e4             	mov    -0x1c(%ebp),%eax
  10259f:	2b 45 e8             	sub    -0x18(%ebp),%eax
  1025a2:	89 c2                	mov    %eax,%edx
  1025a4:	83 ec 08             	sub    $0x8,%esp
  1025a7:	8d 85 e4 fe ff ff    	lea    -0x11c(%ebp),%eax
  1025ad:	50                   	push   %eax
  1025ae:	52                   	push   %edx
  1025af:	e8 4f 26 00 00       	call   104c03 <proso_itoa>
  1025b4:	83 c4 10             	add    $0x10,%esp
  1025b7:	83 ec 0c             	sub    $0xc,%esp
  1025ba:	50                   	push   %eax
  1025bb:	e8 cb 25 00 00       	call   104b8b <proso_strlen>
  1025c0:	83 c4 10             	add    $0x10,%esp
  1025c3:	89 c3                	mov    %eax,%ebx
  1025c5:	8b 45 e4             	mov    -0x1c(%ebp),%eax
  1025c8:	2b 45 e8             	sub    -0x18(%ebp),%eax
  1025cb:	89 c2                	mov    %eax,%edx
  1025cd:	83 ec 08             	sub    $0x8,%esp
  1025d0:	8d 85 e4 fe ff ff    	lea    -0x11c(%ebp),%eax
  1025d6:	50                   	push   %eax
  1025d7:	52                   	push   %edx
  1025d8:	e8 26 26 00 00       	call   104c03 <proso_itoa>
  1025dd:	83 c4 10             	add    $0x10,%esp
  1025e0:	83 ec 04             	sub    $0x4,%esp
  1025e3:	53                   	push   %ebx
  1025e4:	50                   	push   %eax
  1025e5:	6a 01                	push   $0x1
  1025e7:	e8 84 db ff ff       	call   100170 <write>
  1025ec:	83 c4 10             	add    $0x10,%esp
  1025ef:	83 ec 0c             	sub    $0xc,%esp
  1025f2:	68 ed 90 10 00       	push   $0x1090ed
  1025f7:	e8 8f 25 00 00       	call   104b8b <proso_strlen>
  1025fc:	83 c4 10             	add    $0x10,%esp
  1025ff:	83 ec 04             	sub    $0x4,%esp
  102602:	50                   	push   %eax
  102603:	68 ed 90 10 00       	push   $0x1090ed
  102608:	6a 01                	push   $0x1
  10260a:	e8 61 db ff ff       	call   100170 <write>
  10260f:	83 c4 10             	add    $0x10,%esp
  102612:	8b 45 08             	mov    0x8(%ebp),%eax
  102615:	c7 80 8c 00 00 00 00 	movl   $0x109100,0x8c(%eax)
  10261c:	91 10 00 
  10261f:	8b 45 08             	mov    0x8(%ebp),%eax
  102622:	8b 80 8c 00 00 00    	mov    0x8c(%eax),%eax
  102628:	83 ec 0c             	sub    $0xc,%esp
  10262b:	50                   	push   %eax
  10262c:	e8 5a 25 00 00       	call   104b8b <proso_strlen>
  102631:	83 c4 10             	add    $0x10,%esp
  102634:	89 c2                	mov    %eax,%edx
  102636:	8b 45 08             	mov    0x8(%ebp),%eax
  102639:	8b 80 8c 00 00 00    	mov    0x8c(%eax),%eax
  10263f:	83 ec 04             	sub    $0x4,%esp
  102642:	52                   	push   %edx
  102643:	50                   	push   %eax
  102644:	6a 01                	push   $0x1
  102646:	e8 25 db ff ff       	call   100170 <write>
  10264b:	83 c4 10             	add    $0x10,%esp
  10264e:	83 ec 0c             	sub    $0xc,%esp
  102651:	6a 00                	push   $0x0
  102653:	e8 a4 2d 00 00       	call   1053fc <zeos_sem_destroy>
  102658:	83 c4 10             	add    $0x10,%esp
  10265b:	83 ec 0c             	sub    $0xc,%esp
  10265e:	6a 01                	push   $0x1
  102660:	e8 97 2d 00 00       	call   1053fc <zeos_sem_destroy>
  102665:	83 c4 10             	add    $0x10,%esp
  102668:	8b 5d fc             	mov    -0x4(%ebp),%ebx
  10266b:	c9                   	leave  
  10266c:	c3                   	ret    

0010266d <testAccountCSwoBlock>:
  10266d:	55                   	push   %ebp
  10266e:	89 e5                	mov    %esp,%ebp
  102670:	83 ec 08             	sub    $0x8,%esp
  102673:	e8 70 26 00 00       	call   104ce8 <busyWaitCS>
  102678:	85 c0                	test   %eax,%eax
  10267a:	74 49                	je     1026c5 <testAccountCSwoBlock+0x58>
  10267c:	8b 45 08             	mov    0x8(%ebp),%eax
  10267f:	c7 80 88 00 00 00 02 	movl   $0x2,0x88(%eax)
  102686:	00 00 00 
  102689:	8b 45 08             	mov    0x8(%ebp),%eax
  10268c:	c7 80 8c 00 00 00 00 	movl   $0x109100,0x8c(%eax)
  102693:	91 10 00 
  102696:	8b 45 08             	mov    0x8(%ebp),%eax
  102699:	8b 80 8c 00 00 00    	mov    0x8c(%eax),%eax
  10269f:	83 ec 0c             	sub    $0xc,%esp
  1026a2:	50                   	push   %eax
  1026a3:	e8 e3 24 00 00       	call   104b8b <proso_strlen>
  1026a8:	83 c4 10             	add    $0x10,%esp
  1026ab:	89 c2                	mov    %eax,%edx
  1026ad:	8b 45 08             	mov    0x8(%ebp),%eax
  1026b0:	8b 80 8c 00 00 00    	mov    0x8c(%eax),%eax
  1026b6:	83 ec 04             	sub    $0x4,%esp
  1026b9:	52                   	push   %edx
  1026ba:	50                   	push   %eax
  1026bb:	6a 01                	push   $0x1
  1026bd:	e8 ae da ff ff       	call   100170 <write>
  1026c2:	83 c4 10             	add    $0x10,%esp
  1026c5:	c9                   	leave  
  1026c6:	c3                   	ret    

001026c7 <testTicsAccountingBlocked>:
  1026c7:	55                   	push   %ebp
  1026c8:	89 e5                	mov    %esp,%ebp
  1026ca:	53                   	push   %ebx
  1026cb:	83 ec 54             	sub    $0x54,%esp
  1026ce:	b9 00 00 00 00       	mov    $0x0,%ecx
  1026d3:	b8 1c 00 00 00       	mov    $0x1c,%eax
  1026d8:	83 e0 fc             	and    $0xfffffffc,%eax
  1026db:	89 c2                	mov    %eax,%edx
  1026dd:	b8 00 00 00 00       	mov    $0x0,%eax
  1026e2:	89 4c 05 d0          	mov    %ecx,-0x30(%ebp,%eax,1)
  1026e6:	83 c0 04             	add    $0x4,%eax
  1026e9:	39 d0                	cmp    %edx,%eax
  1026eb:	72 f5                	jb     1026e2 <testTicsAccountingBlocked+0x1b>
  1026ed:	b9 00 00 00 00       	mov    $0x0,%ecx
  1026f2:	b8 1c 00 00 00       	mov    $0x1c,%eax
  1026f7:	83 e0 fc             	and    $0xfffffffc,%eax
  1026fa:	89 c2                	mov    %eax,%edx
  1026fc:	b8 00 00 00 00       	mov    $0x0,%eax
  102701:	89 4c 05 b4          	mov    %ecx,-0x4c(%ebp,%eax,1)
  102705:	83 c0 04             	add    $0x4,%eax
  102708:	39 d0                	cmp    %edx,%eax
  10270a:	72 f5                	jb     102701 <testTicsAccountingBlocked+0x3a>
  10270c:	c7 45 f4 00 00 00 00 	movl   $0x0,-0xc(%ebp)
  102713:	83 ec 08             	sub    $0x8,%esp
  102716:	6a 00                	push   $0x0
  102718:	6a 00                	push   $0x0
  10271a:	e8 b4 2c 00 00       	call   1053d3 <zeos_sem_init>
  10271f:	83 c4 10             	add    $0x10,%esp
  102722:	89 45 f0             	mov    %eax,-0x10(%ebp)
  102725:	83 7d f0 00          	cmpl   $0x0,-0x10(%ebp)
  102729:	79 58                	jns    102783 <testTicsAccountingBlocked+0xbc>
  10272b:	8b 45 08             	mov    0x8(%ebp),%eax
  10272e:	c7 80 88 00 00 00 02 	movl   $0x2,0x88(%eax)
  102735:	00 00 00 
  102738:	e8 63 da ff ff       	call   1001a0 <perror>
  10273d:	8b 45 08             	mov    0x8(%ebp),%eax
  102740:	c7 80 8c 00 00 00 88 	movl   $0x108e88,0x8c(%eax)
  102747:	8e 10 00 
  10274a:	8b 45 08             	mov    0x8(%ebp),%eax
  10274d:	8b 80 8c 00 00 00    	mov    0x8c(%eax),%eax
  102753:	83 ec 0c             	sub    $0xc,%esp
  102756:	50                   	push   %eax
  102757:	e8 2f 24 00 00       	call   104b8b <proso_strlen>
  10275c:	83 c4 10             	add    $0x10,%esp
  10275f:	89 c2                	mov    %eax,%edx
  102761:	8b 45 08             	mov    0x8(%ebp),%eax
  102764:	8b 80 8c 00 00 00    	mov    0x8c(%eax),%eax
  10276a:	83 ec 04             	sub    $0x4,%esp
  10276d:	52                   	push   %edx
  10276e:	50                   	push   %eax
  10276f:	6a 01                	push   $0x1
  102771:	e8 fa d9 ff ff       	call   100170 <write>
  102776:	83 c4 10             	add    $0x10,%esp
  102779:	b8 ff ff ff ff       	mov    $0xffffffff,%eax
  10277e:	e9 62 02 00 00       	jmp    1029e5 <testTicsAccountingBlocked+0x31e>
  102783:	e8 b8 d9 ff ff       	call   100140 <fork>
  102788:	89 45 ec             	mov    %eax,-0x14(%ebp)
  10278b:	83 7d ec 00          	cmpl   $0x0,-0x14(%ebp)
  10278f:	0f 85 84 00 00 00    	jne    102819 <testTicsAccountingBlocked+0x152>
  102795:	83 ec 0c             	sub    $0xc,%esp
  102798:	6a 00                	push   $0x0
  10279a:	e8 a9 2c 00 00       	call   105448 <zeos_sem_wait>
  10279f:	83 c4 10             	add    $0x10,%esp
  1027a2:	89 45 f0             	mov    %eax,-0x10(%ebp)
  1027a5:	83 7d f0 00          	cmpl   $0x0,-0x10(%ebp)
  1027a9:	79 41                	jns    1027ec <testTicsAccountingBlocked+0x125>
  1027ab:	e8 f0 d9 ff ff       	call   1001a0 <perror>
  1027b0:	8b 45 08             	mov    0x8(%ebp),%eax
  1027b3:	c7 80 8c 00 00 00 38 	movl   $0x109138,0x8c(%eax)
  1027ba:	91 10 00 
  1027bd:	8b 45 08             	mov    0x8(%ebp),%eax
  1027c0:	8b 80 8c 00 00 00    	mov    0x8c(%eax),%eax
  1027c6:	83 ec 0c             	sub    $0xc,%esp
  1027c9:	50                   	push   %eax
  1027ca:	e8 bc 23 00 00       	call   104b8b <proso_strlen>
  1027cf:	83 c4 10             	add    $0x10,%esp
  1027d2:	89 c2                	mov    %eax,%edx
  1027d4:	8b 45 08             	mov    0x8(%ebp),%eax
  1027d7:	8b 80 8c 00 00 00    	mov    0x8c(%eax),%eax
  1027dd:	83 ec 04             	sub    $0x4,%esp
  1027e0:	52                   	push   %edx
  1027e1:	50                   	push   %eax
  1027e2:	6a 01                	push   $0x1
  1027e4:	e8 87 d9 ff ff       	call   100170 <write>
  1027e9:	83 c4 10             	add    $0x10,%esp
  1027ec:	e8 1f da ff ff       	call   100210 <exit>
  1027f1:	83 ec 0c             	sub    $0xc,%esp
  1027f4:	68 50 8b 10 00       	push   $0x108b50
  1027f9:	e8 8d 23 00 00       	call   104b8b <proso_strlen>
  1027fe:	83 c4 10             	add    $0x10,%esp
  102801:	83 ec 04             	sub    $0x4,%esp
  102804:	50                   	push   %eax
  102805:	68 50 8b 10 00       	push   $0x108b50
  10280a:	6a 01                	push   $0x1
  10280c:	e8 5f d9 ff ff       	call   100170 <write>
  102811:	83 c4 10             	add    $0x10,%esp
  102814:	e9 cc 01 00 00       	jmp    1029e5 <testTicsAccountingBlocked+0x31e>
  102819:	83 7d ec 00          	cmpl   $0x0,-0x14(%ebp)
  10281d:	0f 8e 67 01 00 00    	jle    10298a <testTicsAccountingBlocked+0x2c3>
  102823:	e8 f4 d9 ff ff       	call   10021c <delay>
  102828:	83 ec 08             	sub    $0x8,%esp
  10282b:	8d 45 d0             	lea    -0x30(%ebp),%eax
  10282e:	50                   	push   %eax
  10282f:	ff 75 ec             	pushl  -0x14(%ebp)
  102832:	e8 a9 d9 ff ff       	call   1001e0 <get_stats>
  102837:	83 c4 10             	add    $0x10,%esp
  10283a:	89 45 f0             	mov    %eax,-0x10(%ebp)
  10283d:	83 7d f0 00          	cmpl   $0x0,-0x10(%ebp)
  102841:	0f 88 e6 00 00 00    	js     10292d <testTicsAccountingBlocked+0x266>
  102847:	e8 d0 d9 ff ff       	call   10021c <delay>
  10284c:	83 ec 08             	sub    $0x8,%esp
  10284f:	8d 45 b4             	lea    -0x4c(%ebp),%eax
  102852:	50                   	push   %eax
  102853:	ff 75 ec             	pushl  -0x14(%ebp)
  102856:	e8 85 d9 ff ff       	call   1001e0 <get_stats>
  10285b:	83 c4 10             	add    $0x10,%esp
  10285e:	89 45 f0             	mov    %eax,-0x10(%ebp)
  102861:	83 7d f0 00          	cmpl   $0x0,-0x10(%ebp)
  102865:	78 76                	js     1028dd <testTicsAccountingBlocked+0x216>
  102867:	83 ec 0c             	sub    $0xc,%esp
  10286a:	8d 45 d0             	lea    -0x30(%ebp),%eax
  10286d:	50                   	push   %eax
  10286e:	e8 55 24 00 00       	call   104cc8 <get_tics>
  102873:	83 c4 10             	add    $0x10,%esp
  102876:	89 c3                	mov    %eax,%ebx
  102878:	83 ec 0c             	sub    $0xc,%esp
  10287b:	8d 45 b4             	lea    -0x4c(%ebp),%eax
  10287e:	50                   	push   %eax
  10287f:	e8 44 24 00 00       	call   104cc8 <get_tics>
  102884:	83 c4 10             	add    $0x10,%esp
  102887:	39 c3                	cmp    %eax,%ebx
  102889:	0f 84 ec 00 00 00    	je     10297b <testTicsAccountingBlocked+0x2b4>
  10288f:	8b 45 08             	mov    0x8(%ebp),%eax
  102892:	c7 80 88 00 00 00 02 	movl   $0x2,0x88(%eax)
  102899:	00 00 00 
  10289c:	8b 45 08             	mov    0x8(%ebp),%eax
  10289f:	c7 80 8c 00 00 00 74 	movl   $0x109174,0x8c(%eax)
  1028a6:	91 10 00 
  1028a9:	8b 45 08             	mov    0x8(%ebp),%eax
  1028ac:	8b 80 8c 00 00 00    	mov    0x8c(%eax),%eax
  1028b2:	83 ec 0c             	sub    $0xc,%esp
  1028b5:	50                   	push   %eax
  1028b6:	e8 d0 22 00 00       	call   104b8b <proso_strlen>
  1028bb:	83 c4 10             	add    $0x10,%esp
  1028be:	89 c2                	mov    %eax,%edx
  1028c0:	8b 45 08             	mov    0x8(%ebp),%eax
  1028c3:	8b 80 8c 00 00 00    	mov    0x8c(%eax),%eax
  1028c9:	83 ec 04             	sub    $0x4,%esp
  1028cc:	52                   	push   %edx
  1028cd:	50                   	push   %eax
  1028ce:	6a 01                	push   $0x1
  1028d0:	e8 9b d8 ff ff       	call   100170 <write>
  1028d5:	83 c4 10             	add    $0x10,%esp
  1028d8:	e9 9e 00 00 00       	jmp    10297b <testTicsAccountingBlocked+0x2b4>
  1028dd:	8b 45 08             	mov    0x8(%ebp),%eax
  1028e0:	c7 80 88 00 00 00 02 	movl   $0x2,0x88(%eax)
  1028e7:	00 00 00 
  1028ea:	e8 b1 d8 ff ff       	call   1001a0 <perror>
  1028ef:	8b 45 08             	mov    0x8(%ebp),%eax
  1028f2:	c7 80 8c 00 00 00 ac 	movl   $0x1091ac,0x8c(%eax)
  1028f9:	91 10 00 
  1028fc:	8b 45 08             	mov    0x8(%ebp),%eax
  1028ff:	8b 80 8c 00 00 00    	mov    0x8c(%eax),%eax
  102905:	83 ec 0c             	sub    $0xc,%esp
  102908:	50                   	push   %eax
  102909:	e8 7d 22 00 00       	call   104b8b <proso_strlen>
  10290e:	83 c4 10             	add    $0x10,%esp
  102911:	89 c2                	mov    %eax,%edx
  102913:	8b 45 08             	mov    0x8(%ebp),%eax
  102916:	8b 80 8c 00 00 00    	mov    0x8c(%eax),%eax
  10291c:	83 ec 04             	sub    $0x4,%esp
  10291f:	52                   	push   %edx
  102920:	50                   	push   %eax
  102921:	6a 01                	push   $0x1
  102923:	e8 48 d8 ff ff       	call   100170 <write>
  102928:	83 c4 10             	add    $0x10,%esp
  10292b:	eb 4e                	jmp    10297b <testTicsAccountingBlocked+0x2b4>
  10292d:	8b 45 08             	mov    0x8(%ebp),%eax
  102930:	c7 80 88 00 00 00 02 	movl   $0x2,0x88(%eax)
  102937:	00 00 00 
  10293a:	e8 61 d8 ff ff       	call   1001a0 <perror>
  10293f:	8b 45 08             	mov    0x8(%ebp),%eax
  102942:	c7 80 8c 00 00 00 ac 	movl   $0x1091ac,0x8c(%eax)
  102949:	91 10 00 
  10294c:	8b 45 08             	mov    0x8(%ebp),%eax
  10294f:	8b 80 8c 00 00 00    	mov    0x8c(%eax),%eax
  102955:	83 ec 0c             	sub    $0xc,%esp
  102958:	50                   	push   %eax
  102959:	e8 2d 22 00 00       	call   104b8b <proso_strlen>
  10295e:	83 c4 10             	add    $0x10,%esp
  102961:	89 c2                	mov    %eax,%edx
  102963:	8b 45 08             	mov    0x8(%ebp),%eax
  102966:	8b 80 8c 00 00 00    	mov    0x8c(%eax),%eax
  10296c:	83 ec 04             	sub    $0x4,%esp
  10296f:	52                   	push   %edx
  102970:	50                   	push   %eax
  102971:	6a 01                	push   $0x1
  102973:	e8 f8 d7 ff ff       	call   100170 <write>
  102978:	83 c4 10             	add    $0x10,%esp
  10297b:	83 ec 0c             	sub    $0xc,%esp
  10297e:	6a 00                	push   $0x0
  102980:	e8 9d 2a 00 00       	call   105422 <zeos_sem_signal>
  102985:	83 c4 10             	add    $0x10,%esp
  102988:	eb 4e                	jmp    1029d8 <testTicsAccountingBlocked+0x311>
  10298a:	8b 45 08             	mov    0x8(%ebp),%eax
  10298d:	c7 80 88 00 00 00 02 	movl   $0x2,0x88(%eax)
  102994:	00 00 00 
  102997:	e8 04 d8 ff ff       	call   1001a0 <perror>
  10299c:	8b 45 08             	mov    0x8(%ebp),%eax
  10299f:	c7 80 8c 00 00 00 40 	movl   $0x108d40,0x8c(%eax)
  1029a6:	8d 10 00 
  1029a9:	8b 45 08             	mov    0x8(%ebp),%eax
  1029ac:	8b 80 8c 00 00 00    	mov    0x8c(%eax),%eax
  1029b2:	83 ec 0c             	sub    $0xc,%esp
  1029b5:	50                   	push   %eax
  1029b6:	e8 d0 21 00 00       	call   104b8b <proso_strlen>
  1029bb:	83 c4 10             	add    $0x10,%esp
  1029be:	89 c2                	mov    %eax,%edx
  1029c0:	8b 45 08             	mov    0x8(%ebp),%eax
  1029c3:	8b 80 8c 00 00 00    	mov    0x8c(%eax),%eax
  1029c9:	83 ec 04             	sub    $0x4,%esp
  1029cc:	52                   	push   %edx
  1029cd:	50                   	push   %eax
  1029ce:	6a 01                	push   $0x1
  1029d0:	e8 9b d7 ff ff       	call   100170 <write>
  1029d5:	83 c4 10             	add    $0x10,%esp
  1029d8:	83 ec 0c             	sub    $0xc,%esp
  1029db:	6a 00                	push   $0x0
  1029dd:	e8 1a 2a 00 00       	call   1053fc <zeos_sem_destroy>
  1029e2:	83 c4 10             	add    $0x10,%esp
  1029e5:	8b 5d fc             	mov    -0x4(%ebp),%ebx
  1029e8:	c9                   	leave  
  1029e9:	c3                   	ret    

001029ea <testIndependentQuantums>:
  1029ea:	55                   	push   %ebp
  1029eb:	89 e5                	mov    %esp,%ebp
  1029ed:	83 ec 18             	sub    $0x18,%esp
  1029f0:	83 ec 0c             	sub    $0xc,%esp
  1029f3:	6a 15                	push   $0x15
  1029f5:	e8 74 2a 00 00       	call   10546e <zeos_nice>
  1029fa:	83 c4 10             	add    $0x10,%esp
  1029fd:	89 45 f4             	mov    %eax,-0xc(%ebp)
  102a00:	83 ec 0c             	sub    $0xc,%esp
  102a03:	ff 75 f4             	pushl  -0xc(%ebp)
  102a06:	e8 63 2a 00 00       	call   10546e <zeos_nice>
  102a0b:	83 c4 10             	add    $0x10,%esp
  102a0e:	83 ec 08             	sub    $0x8,%esp
  102a11:	6a 00                	push   $0x0
  102a13:	6a 00                	push   $0x0
  102a15:	e8 b9 29 00 00       	call   1053d3 <zeos_sem_init>
  102a1a:	83 c4 10             	add    $0x10,%esp
  102a1d:	e8 1e d7 ff ff       	call   100140 <fork>
  102a22:	89 45 f0             	mov    %eax,-0x10(%ebp)
  102a25:	83 7d f0 00          	cmpl   $0x0,-0x10(%ebp)
  102a29:	75 47                	jne    102a72 <testIndependentQuantums+0x88>
  102a2b:	83 ec 0c             	sub    $0xc,%esp
  102a2e:	6a 1f                	push   $0x1f
  102a30:	e8 39 2a 00 00       	call   10546e <zeos_nice>
  102a35:	83 c4 10             	add    $0x10,%esp
  102a38:	83 ec 0c             	sub    $0xc,%esp
  102a3b:	6a 00                	push   $0x0
  102a3d:	e8 e0 29 00 00       	call   105422 <zeos_sem_signal>
  102a42:	83 c4 10             	add    $0x10,%esp
  102a45:	e8 c6 d7 ff ff       	call   100210 <exit>
  102a4a:	83 ec 0c             	sub    $0xc,%esp
  102a4d:	68 50 8b 10 00       	push   $0x108b50
  102a52:	e8 34 21 00 00       	call   104b8b <proso_strlen>
  102a57:	83 c4 10             	add    $0x10,%esp
  102a5a:	83 ec 04             	sub    $0x4,%esp
  102a5d:	50                   	push   %eax
  102a5e:	68 50 8b 10 00       	push   $0x108b50
  102a63:	6a 01                	push   $0x1
  102a65:	e8 06 d7 ff ff       	call   100170 <write>
  102a6a:	83 c4 10             	add    $0x10,%esp
  102a6d:	e9 d2 00 00 00       	jmp    102b44 <testIndependentQuantums+0x15a>
  102a72:	83 7d f0 00          	cmpl   $0x0,-0x10(%ebp)
  102a76:	7e 7e                	jle    102af6 <testIndependentQuantums+0x10c>
  102a78:	83 ec 0c             	sub    $0xc,%esp
  102a7b:	6a 00                	push   $0x0
  102a7d:	e8 c6 29 00 00       	call   105448 <zeos_sem_wait>
  102a82:	83 c4 10             	add    $0x10,%esp
  102a85:	83 ec 0c             	sub    $0xc,%esp
  102a88:	6a 29                	push   $0x29
  102a8a:	e8 df 29 00 00       	call   10546e <zeos_nice>
  102a8f:	83 c4 10             	add    $0x10,%esp
  102a92:	89 45 ec             	mov    %eax,-0x14(%ebp)
  102a95:	8b 45 ec             	mov    -0x14(%ebp),%eax
  102a98:	3b 45 f4             	cmp    -0xc(%ebp),%eax
  102a9b:	74 49                	je     102ae6 <testIndependentQuantums+0xfc>
  102a9d:	8b 45 08             	mov    0x8(%ebp),%eax
  102aa0:	c7 80 88 00 00 00 02 	movl   $0x2,0x88(%eax)
  102aa7:	00 00 00 
  102aaa:	8b 45 08             	mov    0x8(%ebp),%eax
  102aad:	c7 80 8c 00 00 00 f8 	movl   $0x1091f8,0x8c(%eax)
  102ab4:	91 10 00 
  102ab7:	8b 45 08             	mov    0x8(%ebp),%eax
  102aba:	8b 80 8c 00 00 00    	mov    0x8c(%eax),%eax
  102ac0:	83 ec 0c             	sub    $0xc,%esp
  102ac3:	50                   	push   %eax
  102ac4:	e8 c2 20 00 00       	call   104b8b <proso_strlen>
  102ac9:	83 c4 10             	add    $0x10,%esp
  102acc:	89 c2                	mov    %eax,%edx
  102ace:	8b 45 08             	mov    0x8(%ebp),%eax
  102ad1:	8b 80 8c 00 00 00    	mov    0x8c(%eax),%eax
  102ad7:	83 ec 04             	sub    $0x4,%esp
  102ada:	52                   	push   %edx
  102adb:	50                   	push   %eax
  102adc:	6a 01                	push   $0x1
  102ade:	e8 8d d6 ff ff       	call   100170 <write>
  102ae3:	83 c4 10             	add    $0x10,%esp
  102ae6:	83 ec 0c             	sub    $0xc,%esp
  102ae9:	ff 75 ec             	pushl  -0x14(%ebp)
  102aec:	e8 7d 29 00 00       	call   10546e <zeos_nice>
  102af1:	83 c4 10             	add    $0x10,%esp
  102af4:	eb 4e                	jmp    102b44 <testIndependentQuantums+0x15a>
  102af6:	8b 45 08             	mov    0x8(%ebp),%eax
  102af9:	c7 80 88 00 00 00 02 	movl   $0x2,0x88(%eax)
  102b00:	00 00 00 
  102b03:	e8 98 d6 ff ff       	call   1001a0 <perror>
  102b08:	8b 45 08             	mov    0x8(%ebp),%eax
  102b0b:	c7 80 8c 00 00 00 40 	movl   $0x108d40,0x8c(%eax)
  102b12:	8d 10 00 
  102b15:	8b 45 08             	mov    0x8(%ebp),%eax
  102b18:	8b 80 8c 00 00 00    	mov    0x8c(%eax),%eax
  102b1e:	83 ec 0c             	sub    $0xc,%esp
  102b21:	50                   	push   %eax
  102b22:	e8 64 20 00 00       	call   104b8b <proso_strlen>
  102b27:	83 c4 10             	add    $0x10,%esp
  102b2a:	89 c2                	mov    %eax,%edx
  102b2c:	8b 45 08             	mov    0x8(%ebp),%eax
  102b2f:	8b 80 8c 00 00 00    	mov    0x8c(%eax),%eax
  102b35:	83 ec 04             	sub    $0x4,%esp
  102b38:	52                   	push   %edx
  102b39:	50                   	push   %eax
  102b3a:	6a 01                	push   $0x1
  102b3c:	e8 2f d6 ff ff       	call   100170 <write>
  102b41:	83 c4 10             	add    $0x10,%esp
  102b44:	83 ec 0c             	sub    $0xc,%esp
  102b47:	6a 00                	push   $0x0
  102b49:	e8 ae 28 00 00       	call   1053fc <zeos_sem_destroy>
  102b4e:	83 c4 10             	add    $0x10,%esp
  102b51:	c9                   	leave  
  102b52:	c3                   	ret    

00102b53 <testRoundRobinQuantumRem>:
  102b53:	55                   	push   %ebp
  102b54:	89 e5                	mov    %esp,%ebp
  102b56:	81 ec b8 00 00 00    	sub    $0xb8,%esp
  102b5c:	83 ec 0c             	sub    $0xc,%esp
  102b5f:	6a 0a                	push   $0xa
  102b61:	e8 08 29 00 00       	call   10546e <zeos_nice>
  102b66:	83 c4 10             	add    $0x10,%esp
  102b69:	e8 7a 21 00 00       	call   104ce8 <busyWaitCS>
  102b6e:	e8 9d d5 ff ff       	call   100110 <getpid>
  102b73:	89 45 f4             	mov    %eax,-0xc(%ebp)
  102b76:	83 ec 08             	sub    $0x8,%esp
  102b79:	8d 45 cc             	lea    -0x34(%ebp),%eax
  102b7c:	50                   	push   %eax
  102b7d:	ff 75 f4             	pushl  -0xc(%ebp)
  102b80:	e8 5b d6 ff ff       	call   1001e0 <get_stats>
  102b85:	83 c4 10             	add    $0x10,%esp
  102b88:	89 45 f0             	mov    %eax,-0x10(%ebp)
  102b8b:	83 7d f0 00          	cmpl   $0x0,-0x10(%ebp)
  102b8f:	79 41                	jns    102bd2 <testRoundRobinQuantumRem+0x7f>
  102b91:	8b 45 08             	mov    0x8(%ebp),%eax
  102b94:	c7 80 8c 00 00 00 34 	movl   $0x109234,0x8c(%eax)
  102b9b:	92 10 00 
  102b9e:	8b 45 08             	mov    0x8(%ebp),%eax
  102ba1:	8b 80 8c 00 00 00    	mov    0x8c(%eax),%eax
  102ba7:	83 ec 0c             	sub    $0xc,%esp
  102baa:	50                   	push   %eax
  102bab:	e8 db 1f 00 00       	call   104b8b <proso_strlen>
  102bb0:	83 c4 10             	add    $0x10,%esp
  102bb3:	89 c2                	mov    %eax,%edx
  102bb5:	8b 45 08             	mov    0x8(%ebp),%eax
  102bb8:	8b 80 8c 00 00 00    	mov    0x8c(%eax),%eax
  102bbe:	83 ec 04             	sub    $0x4,%esp
  102bc1:	52                   	push   %edx
  102bc2:	50                   	push   %eax
  102bc3:	6a 01                	push   $0x1
  102bc5:	e8 a6 d5 ff ff       	call   100170 <write>
  102bca:	83 c4 10             	add    $0x10,%esp
  102bcd:	e9 f9 00 00 00       	jmp    102ccb <testRoundRobinQuantumRem+0x178>
  102bd2:	83 ec 0c             	sub    $0xc,%esp
  102bd5:	8d 45 cc             	lea    -0x34(%ebp),%eax
  102bd8:	50                   	push   %eax
  102bd9:	e8 ff 20 00 00       	call   104cdd <get_remaining_quantum>
  102bde:	83 c4 10             	add    $0x10,%esp
  102be1:	89 45 ec             	mov    %eax,-0x14(%ebp)
  102be4:	83 7d ec 0a          	cmpl   $0xa,-0x14(%ebp)
  102be8:	75 28                	jne    102c12 <testRoundRobinQuantumRem+0xbf>
  102bea:	83 ec 0c             	sub    $0xc,%esp
  102bed:	68 64 92 10 00       	push   $0x109264
  102bf2:	e8 94 1f 00 00       	call   104b8b <proso_strlen>
  102bf7:	83 c4 10             	add    $0x10,%esp
  102bfa:	83 ec 04             	sub    $0x4,%esp
  102bfd:	50                   	push   %eax
  102bfe:	68 64 92 10 00       	push   $0x109264
  102c03:	6a 01                	push   $0x1
  102c05:	e8 66 d5 ff ff       	call   100170 <write>
  102c0a:	83 c4 10             	add    $0x10,%esp
  102c0d:	e8 08 25 00 00       	call   10511a <busyWaitRemaining>
  102c12:	83 ec 08             	sub    $0x8,%esp
  102c15:	8d 45 cc             	lea    -0x34(%ebp),%eax
  102c18:	50                   	push   %eax
  102c19:	ff 75 f4             	pushl  -0xc(%ebp)
  102c1c:	e8 bf d5 ff ff       	call   1001e0 <get_stats>
  102c21:	83 c4 10             	add    $0x10,%esp
  102c24:	89 45 f0             	mov    %eax,-0x10(%ebp)
  102c27:	83 ec 0c             	sub    $0xc,%esp
  102c2a:	8d 45 cc             	lea    -0x34(%ebp),%eax
  102c2d:	50                   	push   %eax
  102c2e:	e8 aa 20 00 00       	call   104cdd <get_remaining_quantum>
  102c33:	83 c4 10             	add    $0x10,%esp
  102c36:	89 45 ec             	mov    %eax,-0x14(%ebp)
  102c39:	e8 aa 20 00 00       	call   104ce8 <busyWaitCS>
  102c3e:	83 ec 08             	sub    $0x8,%esp
  102c41:	8d 45 b0             	lea    -0x50(%ebp),%eax
  102c44:	50                   	push   %eax
  102c45:	ff 75 f4             	pushl  -0xc(%ebp)
  102c48:	e8 93 d5 ff ff       	call   1001e0 <get_stats>
  102c4d:	83 c4 10             	add    $0x10,%esp
  102c50:	89 45 f0             	mov    %eax,-0x10(%ebp)
  102c53:	83 ec 0c             	sub    $0xc,%esp
  102c56:	8d 45 b0             	lea    -0x50(%ebp),%eax
  102c59:	50                   	push   %eax
  102c5a:	e8 7e 20 00 00       	call   104cdd <get_remaining_quantum>
  102c5f:	83 c4 10             	add    $0x10,%esp
  102c62:	89 45 e8             	mov    %eax,-0x18(%ebp)
  102c65:	8b 45 e8             	mov    -0x18(%ebp),%eax
  102c68:	3b 45 ec             	cmp    -0x14(%ebp),%eax
  102c6b:	76 15                	jbe    102c82 <testRoundRobinQuantumRem+0x12f>
  102c6d:	83 7d e8 0a          	cmpl   $0xa,-0x18(%ebp)
  102c71:	77 0f                	ja     102c82 <testRoundRobinQuantumRem+0x12f>
  102c73:	8b 45 08             	mov    0x8(%ebp),%eax
  102c76:	c7 80 88 00 00 00 00 	movl   $0x0,0x88(%eax)
  102c7d:	00 00 00 
  102c80:	eb 49                	jmp    102ccb <testRoundRobinQuantumRem+0x178>
  102c82:	8b 45 08             	mov    0x8(%ebp),%eax
  102c85:	c7 80 88 00 00 00 02 	movl   $0x2,0x88(%eax)
  102c8c:	00 00 00 
  102c8f:	8b 45 08             	mov    0x8(%ebp),%eax
  102c92:	c7 80 8c 00 00 00 84 	movl   $0x109284,0x8c(%eax)
  102c99:	92 10 00 
  102c9c:	8b 45 08             	mov    0x8(%ebp),%eax
  102c9f:	8b 80 8c 00 00 00    	mov    0x8c(%eax),%eax
  102ca5:	83 ec 0c             	sub    $0xc,%esp
  102ca8:	50                   	push   %eax
  102ca9:	e8 dd 1e 00 00       	call   104b8b <proso_strlen>
  102cae:	83 c4 10             	add    $0x10,%esp
  102cb1:	89 c2                	mov    %eax,%edx
  102cb3:	8b 45 08             	mov    0x8(%ebp),%eax
  102cb6:	8b 80 8c 00 00 00    	mov    0x8c(%eax),%eax
  102cbc:	83 ec 04             	sub    $0x4,%esp
  102cbf:	52                   	push   %edx
  102cc0:	50                   	push   %eax
  102cc1:	6a 01                	push   $0x1
  102cc3:	e8 a8 d4 ff ff       	call   100170 <write>
  102cc8:	83 c4 10             	add    $0x10,%esp
  102ccb:	c9                   	leave  
  102ccc:	c3                   	ret    

00102ccd <testRoundRobinSwithcNb>:
  102ccd:	55                   	push   %ebp
  102cce:	89 e5                	mov    %esp,%ebp
  102cd0:	53                   	push   %ebx
  102cd1:	81 ec 94 01 00 00    	sub    $0x194,%esp
  102cd7:	e8 34 d4 ff ff       	call   100110 <getpid>
  102cdc:	89 45 f0             	mov    %eax,-0x10(%ebp)
  102cdf:	83 ec 08             	sub    $0x8,%esp
  102ce2:	6a 00                	push   $0x0
  102ce4:	6a 00                	push   $0x0
  102ce6:	e8 e8 26 00 00       	call   1053d3 <zeos_sem_init>
  102ceb:	83 c4 10             	add    $0x10,%esp
  102cee:	83 ec 08             	sub    $0x8,%esp
  102cf1:	6a 00                	push   $0x0
  102cf3:	6a 01                	push   $0x1
  102cf5:	e8 d9 26 00 00       	call   1053d3 <zeos_sem_init>
  102cfa:	83 c4 10             	add    $0x10,%esp
  102cfd:	e8 3e d4 ff ff       	call   100140 <fork>
  102d02:	89 45 ec             	mov    %eax,-0x14(%ebp)
  102d05:	83 7d ec 00          	cmpl   $0x0,-0x14(%ebp)
  102d09:	79 53                	jns    102d5e <testRoundRobinSwithcNb+0x91>
  102d0b:	8b 45 08             	mov    0x8(%ebp),%eax
  102d0e:	c7 80 88 00 00 00 02 	movl   $0x2,0x88(%eax)
  102d15:	00 00 00 
  102d18:	e8 83 d4 ff ff       	call   1001a0 <perror>
  102d1d:	8b 45 08             	mov    0x8(%ebp),%eax
  102d20:	c7 80 8c 00 00 00 40 	movl   $0x108d40,0x8c(%eax)
  102d27:	8d 10 00 
  102d2a:	8b 45 08             	mov    0x8(%ebp),%eax
  102d2d:	8b 80 8c 00 00 00    	mov    0x8c(%eax),%eax
  102d33:	83 ec 0c             	sub    $0xc,%esp
  102d36:	50                   	push   %eax
  102d37:	e8 4f 1e 00 00       	call   104b8b <proso_strlen>
  102d3c:	83 c4 10             	add    $0x10,%esp
  102d3f:	89 c2                	mov    %eax,%edx
  102d41:	8b 45 08             	mov    0x8(%ebp),%eax
  102d44:	8b 80 8c 00 00 00    	mov    0x8c(%eax),%eax
  102d4a:	83 ec 04             	sub    $0x4,%esp
  102d4d:	52                   	push   %edx
  102d4e:	50                   	push   %eax
  102d4f:	6a 01                	push   $0x1
  102d51:	e8 1a d4 ff ff       	call   100170 <write>
  102d56:	83 c4 10             	add    $0x10,%esp
  102d59:	e9 05 04 00 00       	jmp    103163 <testRoundRobinSwithcNb+0x496>
  102d5e:	83 7d ec 00          	cmpl   $0x0,-0x14(%ebp)
  102d62:	75 79                	jne    102ddd <testRoundRobinSwithcNb+0x110>
  102d64:	83 ec 0c             	sub    $0xc,%esp
  102d67:	6a 01                	push   $0x1
  102d69:	e8 b4 26 00 00       	call   105422 <zeos_sem_signal>
  102d6e:	83 c4 10             	add    $0x10,%esp
  102d71:	83 ec 0c             	sub    $0xc,%esp
  102d74:	6a 00                	push   $0x0
  102d76:	e8 cd 26 00 00       	call   105448 <zeos_sem_wait>
  102d7b:	83 c4 10             	add    $0x10,%esp
  102d7e:	c7 45 f4 00 00 00 00 	movl   $0x0,-0xc(%ebp)
  102d85:	eb 09                	jmp    102d90 <testRoundRobinSwithcNb+0xc3>
  102d87:	e8 90 d4 ff ff       	call   10021c <delay>
  102d8c:	83 45 f4 01          	addl   $0x1,-0xc(%ebp)
  102d90:	83 7d f4 05          	cmpl   $0x5,-0xc(%ebp)
  102d94:	7e f1                	jle    102d87 <testRoundRobinSwithcNb+0xba>
  102d96:	83 ec 0c             	sub    $0xc,%esp
  102d99:	6a 01                	push   $0x1
  102d9b:	e8 82 26 00 00       	call   105422 <zeos_sem_signal>
  102da0:	83 c4 10             	add    $0x10,%esp
  102da3:	83 ec 0c             	sub    $0xc,%esp
  102da6:	6a 00                	push   $0x0
  102da8:	e8 9b 26 00 00       	call   105448 <zeos_sem_wait>
  102dad:	83 c4 10             	add    $0x10,%esp
  102db0:	e8 5b d4 ff ff       	call   100210 <exit>
  102db5:	83 ec 0c             	sub    $0xc,%esp
  102db8:	68 50 8b 10 00       	push   $0x108b50
  102dbd:	e8 c9 1d 00 00       	call   104b8b <proso_strlen>
  102dc2:	83 c4 10             	add    $0x10,%esp
  102dc5:	83 ec 04             	sub    $0x4,%esp
  102dc8:	50                   	push   %eax
  102dc9:	68 50 8b 10 00       	push   $0x108b50
  102dce:	6a 01                	push   $0x1
  102dd0:	e8 9b d3 ff ff       	call   100170 <write>
  102dd5:	83 c4 10             	add    $0x10,%esp
  102dd8:	e9 86 03 00 00       	jmp    103163 <testRoundRobinSwithcNb+0x496>
  102ddd:	83 ec 0c             	sub    $0xc,%esp
  102de0:	6a 01                	push   $0x1
  102de2:	e8 61 26 00 00       	call   105448 <zeos_sem_wait>
  102de7:	83 c4 10             	add    $0x10,%esp
  102dea:	83 ec 08             	sub    $0x8,%esp
  102ded:	8d 45 c4             	lea    -0x3c(%ebp),%eax
  102df0:	50                   	push   %eax
  102df1:	ff 75 ec             	pushl  -0x14(%ebp)
  102df4:	e8 e7 d3 ff ff       	call   1001e0 <get_stats>
  102df9:	83 c4 10             	add    $0x10,%esp
  102dfc:	89 45 e8             	mov    %eax,-0x18(%ebp)
  102dff:	83 7d e8 00          	cmpl   $0x0,-0x18(%ebp)
  102e03:	0f 89 87 00 00 00    	jns    102e90 <testRoundRobinSwithcNb+0x1c3>
  102e09:	8b 45 08             	mov    0x8(%ebp),%eax
  102e0c:	c7 80 88 00 00 00 02 	movl   $0x2,0x88(%eax)
  102e13:	00 00 00 
  102e16:	e8 85 d3 ff ff       	call   1001a0 <perror>
  102e1b:	8b 45 08             	mov    0x8(%ebp),%eax
  102e1e:	c7 80 8c 00 00 00 cc 	movl   $0x1092cc,0x8c(%eax)
  102e25:	92 10 00 
  102e28:	8b 45 08             	mov    0x8(%ebp),%eax
  102e2b:	8b 80 8c 00 00 00    	mov    0x8c(%eax),%eax
  102e31:	83 ec 0c             	sub    $0xc,%esp
  102e34:	50                   	push   %eax
  102e35:	e8 51 1d 00 00       	call   104b8b <proso_strlen>
  102e3a:	83 c4 10             	add    $0x10,%esp
  102e3d:	89 c2                	mov    %eax,%edx
  102e3f:	8b 45 08             	mov    0x8(%ebp),%eax
  102e42:	8b 80 8c 00 00 00    	mov    0x8c(%eax),%eax
  102e48:	83 ec 04             	sub    $0x4,%esp
  102e4b:	52                   	push   %edx
  102e4c:	50                   	push   %eax
  102e4d:	6a 01                	push   $0x1
  102e4f:	e8 1c d3 ff ff       	call   100170 <write>
  102e54:	83 c4 10             	add    $0x10,%esp
  102e57:	83 ec 0c             	sub    $0xc,%esp
  102e5a:	6a 00                	push   $0x0
  102e5c:	e8 c1 25 00 00       	call   105422 <zeos_sem_signal>
  102e61:	83 c4 10             	add    $0x10,%esp
  102e64:	83 ec 0c             	sub    $0xc,%esp
  102e67:	6a 00                	push   $0x0
  102e69:	e8 b4 25 00 00       	call   105422 <zeos_sem_signal>
  102e6e:	83 c4 10             	add    $0x10,%esp
  102e71:	83 ec 0c             	sub    $0xc,%esp
  102e74:	6a 00                	push   $0x0
  102e76:	e8 81 25 00 00       	call   1053fc <zeos_sem_destroy>
  102e7b:	83 c4 10             	add    $0x10,%esp
  102e7e:	83 ec 0c             	sub    $0xc,%esp
  102e81:	6a 01                	push   $0x1
  102e83:	e8 74 25 00 00       	call   1053fc <zeos_sem_destroy>
  102e88:	83 c4 10             	add    $0x10,%esp
  102e8b:	e9 d3 02 00 00       	jmp    103163 <testRoundRobinSwithcNb+0x496>
  102e90:	83 ec 08             	sub    $0x8,%esp
  102e93:	8d 45 a8             	lea    -0x58(%ebp),%eax
  102e96:	50                   	push   %eax
  102e97:	ff 75 f0             	pushl  -0x10(%ebp)
  102e9a:	e8 41 d3 ff ff       	call   1001e0 <get_stats>
  102e9f:	83 c4 10             	add    $0x10,%esp
  102ea2:	89 45 e8             	mov    %eax,-0x18(%ebp)
  102ea5:	83 7d e8 00          	cmpl   $0x0,-0x18(%ebp)
  102ea9:	0f 89 87 00 00 00    	jns    102f36 <testRoundRobinSwithcNb+0x269>
  102eaf:	8b 45 08             	mov    0x8(%ebp),%eax
  102eb2:	c7 80 88 00 00 00 02 	movl   $0x2,0x88(%eax)
  102eb9:	00 00 00 
  102ebc:	e8 df d2 ff ff       	call   1001a0 <perror>
  102ec1:	8b 45 08             	mov    0x8(%ebp),%eax
  102ec4:	c7 80 8c 00 00 00 f0 	movl   $0x1092f0,0x8c(%eax)
  102ecb:	92 10 00 
  102ece:	8b 45 08             	mov    0x8(%ebp),%eax
  102ed1:	8b 80 8c 00 00 00    	mov    0x8c(%eax),%eax
  102ed7:	83 ec 0c             	sub    $0xc,%esp
  102eda:	50                   	push   %eax
  102edb:	e8 ab 1c 00 00       	call   104b8b <proso_strlen>
  102ee0:	83 c4 10             	add    $0x10,%esp
  102ee3:	89 c2                	mov    %eax,%edx
  102ee5:	8b 45 08             	mov    0x8(%ebp),%eax
  102ee8:	8b 80 8c 00 00 00    	mov    0x8c(%eax),%eax
  102eee:	83 ec 04             	sub    $0x4,%esp
  102ef1:	52                   	push   %edx
  102ef2:	50                   	push   %eax
  102ef3:	6a 01                	push   $0x1
  102ef5:	e8 76 d2 ff ff       	call   100170 <write>
  102efa:	83 c4 10             	add    $0x10,%esp
  102efd:	83 ec 0c             	sub    $0xc,%esp
  102f00:	6a 00                	push   $0x0
  102f02:	e8 1b 25 00 00       	call   105422 <zeos_sem_signal>
  102f07:	83 c4 10             	add    $0x10,%esp
  102f0a:	83 ec 0c             	sub    $0xc,%esp
  102f0d:	6a 00                	push   $0x0
  102f0f:	e8 0e 25 00 00       	call   105422 <zeos_sem_signal>
  102f14:	83 c4 10             	add    $0x10,%esp
  102f17:	83 ec 0c             	sub    $0xc,%esp
  102f1a:	6a 00                	push   $0x0
  102f1c:	e8 db 24 00 00       	call   1053fc <zeos_sem_destroy>
  102f21:	83 c4 10             	add    $0x10,%esp
  102f24:	83 ec 0c             	sub    $0xc,%esp
  102f27:	6a 01                	push   $0x1
  102f29:	e8 ce 24 00 00       	call   1053fc <zeos_sem_destroy>
  102f2e:	83 c4 10             	add    $0x10,%esp
  102f31:	e9 2d 02 00 00       	jmp    103163 <testRoundRobinSwithcNb+0x496>
  102f36:	83 ec 0c             	sub    $0xc,%esp
  102f39:	6a 00                	push   $0x0
  102f3b:	e8 e2 24 00 00       	call   105422 <zeos_sem_signal>
  102f40:	83 c4 10             	add    $0x10,%esp
  102f43:	c7 45 f4 00 00 00 00 	movl   $0x0,-0xc(%ebp)
  102f4a:	eb 09                	jmp    102f55 <testRoundRobinSwithcNb+0x288>
  102f4c:	e8 cb d2 ff ff       	call   10021c <delay>
  102f51:	83 45 f4 01          	addl   $0x1,-0xc(%ebp)
  102f55:	83 7d f4 05          	cmpl   $0x5,-0xc(%ebp)
  102f59:	7e f1                	jle    102f4c <testRoundRobinSwithcNb+0x27f>
  102f5b:	83 ec 08             	sub    $0x8,%esp
  102f5e:	8d 85 70 ff ff ff    	lea    -0x90(%ebp),%eax
  102f64:	50                   	push   %eax
  102f65:	ff 75 f0             	pushl  -0x10(%ebp)
  102f68:	e8 73 d2 ff ff       	call   1001e0 <get_stats>
  102f6d:	83 c4 10             	add    $0x10,%esp
  102f70:	89 45 e8             	mov    %eax,-0x18(%ebp)
  102f73:	83 7d e8 00          	cmpl   $0x0,-0x18(%ebp)
  102f77:	79 7a                	jns    102ff3 <testRoundRobinSwithcNb+0x326>
  102f79:	8b 45 08             	mov    0x8(%ebp),%eax
  102f7c:	c7 80 88 00 00 00 02 	movl   $0x2,0x88(%eax)
  102f83:	00 00 00 
  102f86:	e8 15 d2 ff ff       	call   1001a0 <perror>
  102f8b:	8b 45 08             	mov    0x8(%ebp),%eax
  102f8e:	c7 80 8c 00 00 00 f0 	movl   $0x1092f0,0x8c(%eax)
  102f95:	92 10 00 
  102f98:	8b 45 08             	mov    0x8(%ebp),%eax
  102f9b:	8b 80 8c 00 00 00    	mov    0x8c(%eax),%eax
  102fa1:	83 ec 0c             	sub    $0xc,%esp
  102fa4:	50                   	push   %eax
  102fa5:	e8 e1 1b 00 00       	call   104b8b <proso_strlen>
  102faa:	83 c4 10             	add    $0x10,%esp
  102fad:	89 c2                	mov    %eax,%edx
  102faf:	8b 45 08             	mov    0x8(%ebp),%eax
  102fb2:	8b 80 8c 00 00 00    	mov    0x8c(%eax),%eax
  102fb8:	83 ec 04             	sub    $0x4,%esp
  102fbb:	52                   	push   %edx
  102fbc:	50                   	push   %eax
  102fbd:	6a 01                	push   $0x1
  102fbf:	e8 ac d1 ff ff       	call   100170 <write>
  102fc4:	83 c4 10             	add    $0x10,%esp
  102fc7:	83 ec 0c             	sub    $0xc,%esp
  102fca:	6a 00                	push   $0x0
  102fcc:	e8 51 24 00 00       	call   105422 <zeos_sem_signal>
  102fd1:	83 c4 10             	add    $0x10,%esp
  102fd4:	83 ec 0c             	sub    $0xc,%esp
  102fd7:	6a 00                	push   $0x0
  102fd9:	e8 1e 24 00 00       	call   1053fc <zeos_sem_destroy>
  102fde:	83 c4 10             	add    $0x10,%esp
  102fe1:	83 ec 0c             	sub    $0xc,%esp
  102fe4:	6a 01                	push   $0x1
  102fe6:	e8 11 24 00 00       	call   1053fc <zeos_sem_destroy>
  102feb:	83 c4 10             	add    $0x10,%esp
  102fee:	e9 70 01 00 00       	jmp    103163 <testRoundRobinSwithcNb+0x496>
  102ff3:	83 ec 0c             	sub    $0xc,%esp
  102ff6:	6a 01                	push   $0x1
  102ff8:	e8 4b 24 00 00       	call   105448 <zeos_sem_wait>
  102ffd:	83 c4 10             	add    $0x10,%esp
  103000:	83 ec 08             	sub    $0x8,%esp
  103003:	8d 45 8c             	lea    -0x74(%ebp),%eax
  103006:	50                   	push   %eax
  103007:	ff 75 ec             	pushl  -0x14(%ebp)
  10300a:	e8 d1 d1 ff ff       	call   1001e0 <get_stats>
  10300f:	83 c4 10             	add    $0x10,%esp
  103012:	89 45 e8             	mov    %eax,-0x18(%ebp)
  103015:	83 7d e8 00          	cmpl   $0x0,-0x18(%ebp)
  103019:	79 7a                	jns    103095 <testRoundRobinSwithcNb+0x3c8>
  10301b:	8b 45 08             	mov    0x8(%ebp),%eax
  10301e:	c7 80 88 00 00 00 02 	movl   $0x2,0x88(%eax)
  103025:	00 00 00 
  103028:	e8 73 d1 ff ff       	call   1001a0 <perror>
  10302d:	8b 45 08             	mov    0x8(%ebp),%eax
  103030:	c7 80 8c 00 00 00 cc 	movl   $0x1092cc,0x8c(%eax)
  103037:	92 10 00 
  10303a:	8b 45 08             	mov    0x8(%ebp),%eax
  10303d:	8b 80 8c 00 00 00    	mov    0x8c(%eax),%eax
  103043:	83 ec 0c             	sub    $0xc,%esp
  103046:	50                   	push   %eax
  103047:	e8 3f 1b 00 00       	call   104b8b <proso_strlen>
  10304c:	83 c4 10             	add    $0x10,%esp
  10304f:	89 c2                	mov    %eax,%edx
  103051:	8b 45 08             	mov    0x8(%ebp),%eax
  103054:	8b 80 8c 00 00 00    	mov    0x8c(%eax),%eax
  10305a:	83 ec 04             	sub    $0x4,%esp
  10305d:	52                   	push   %edx
  10305e:	50                   	push   %eax
  10305f:	6a 01                	push   $0x1
  103061:	e8 0a d1 ff ff       	call   100170 <write>
  103066:	83 c4 10             	add    $0x10,%esp
  103069:	83 ec 0c             	sub    $0xc,%esp
  10306c:	6a 00                	push   $0x0
  10306e:	e8 af 23 00 00       	call   105422 <zeos_sem_signal>
  103073:	83 c4 10             	add    $0x10,%esp
  103076:	83 ec 0c             	sub    $0xc,%esp
  103079:	6a 00                	push   $0x0
  10307b:	e8 7c 23 00 00       	call   1053fc <zeos_sem_destroy>
  103080:	83 c4 10             	add    $0x10,%esp
  103083:	83 ec 0c             	sub    $0xc,%esp
  103086:	6a 01                	push   $0x1
  103088:	e8 6f 23 00 00       	call   1053fc <zeos_sem_destroy>
  10308d:	83 c4 10             	add    $0x10,%esp
  103090:	e9 ce 00 00 00       	jmp    103163 <testRoundRobinSwithcNb+0x496>
  103095:	83 ec 0c             	sub    $0xc,%esp
  103098:	6a 00                	push   $0x0
  10309a:	e8 83 23 00 00       	call   105422 <zeos_sem_signal>
  10309f:	83 c4 10             	add    $0x10,%esp
  1030a2:	83 ec 0c             	sub    $0xc,%esp
  1030a5:	6a 00                	push   $0x0
  1030a7:	e8 50 23 00 00       	call   1053fc <zeos_sem_destroy>
  1030ac:	83 c4 10             	add    $0x10,%esp
  1030af:	83 ec 0c             	sub    $0xc,%esp
  1030b2:	6a 01                	push   $0x1
  1030b4:	e8 43 23 00 00       	call   1053fc <zeos_sem_destroy>
  1030b9:	83 c4 10             	add    $0x10,%esp
  1030bc:	83 ec 0c             	sub    $0xc,%esp
  1030bf:	8d 85 70 ff ff ff    	lea    -0x90(%ebp),%eax
  1030c5:	50                   	push   %eax
  1030c6:	e8 07 1c 00 00       	call   104cd2 <get_cs>
  1030cb:	83 c4 10             	add    $0x10,%esp
  1030ce:	89 c3                	mov    %eax,%ebx
  1030d0:	83 ec 0c             	sub    $0xc,%esp
  1030d3:	8d 45 a8             	lea    -0x58(%ebp),%eax
  1030d6:	50                   	push   %eax
  1030d7:	e8 f6 1b 00 00       	call   104cd2 <get_cs>
  1030dc:	83 c4 10             	add    $0x10,%esp
  1030df:	29 c3                	sub    %eax,%ebx
  1030e1:	89 d8                	mov    %ebx,%eax
  1030e3:	89 45 e4             	mov    %eax,-0x1c(%ebp)
  1030e6:	83 ec 0c             	sub    $0xc,%esp
  1030e9:	8d 45 8c             	lea    -0x74(%ebp),%eax
  1030ec:	50                   	push   %eax
  1030ed:	e8 e0 1b 00 00       	call   104cd2 <get_cs>
  1030f2:	83 c4 10             	add    $0x10,%esp
  1030f5:	89 c3                	mov    %eax,%ebx
  1030f7:	83 ec 0c             	sub    $0xc,%esp
  1030fa:	8d 45 c4             	lea    -0x3c(%ebp),%eax
  1030fd:	50                   	push   %eax
  1030fe:	e8 cf 1b 00 00       	call   104cd2 <get_cs>
  103103:	83 c4 10             	add    $0x10,%esp
  103106:	29 c3                	sub    %eax,%ebx
  103108:	89 d8                	mov    %ebx,%eax
  10310a:	89 45 e0             	mov    %eax,-0x20(%ebp)
  10310d:	8b 45 e0             	mov    -0x20(%ebp),%eax
  103110:	83 e8 01             	sub    $0x1,%eax
  103113:	3b 45 e4             	cmp    -0x1c(%ebp),%eax
  103116:	74 4b                	je     103163 <testRoundRobinSwithcNb+0x496>
  103118:	8b 45 08             	mov    0x8(%ebp),%eax
  10311b:	c7 80 88 00 00 00 02 	movl   $0x2,0x88(%eax)
  103122:	00 00 00 
  103125:	8b 45 08             	mov    0x8(%ebp),%eax
  103128:	c7 80 8c 00 00 00 1c 	movl   $0x10931c,0x8c(%eax)
  10312f:	93 10 00 
  103132:	8b 45 08             	mov    0x8(%ebp),%eax
  103135:	8b 80 8c 00 00 00    	mov    0x8c(%eax),%eax
  10313b:	83 ec 0c             	sub    $0xc,%esp
  10313e:	50                   	push   %eax
  10313f:	e8 47 1a 00 00       	call   104b8b <proso_strlen>
  103144:	83 c4 10             	add    $0x10,%esp
  103147:	89 c2                	mov    %eax,%edx
  103149:	8b 45 08             	mov    0x8(%ebp),%eax
  10314c:	8b 80 8c 00 00 00    	mov    0x8c(%eax),%eax
  103152:	83 ec 04             	sub    $0x4,%esp
  103155:	52                   	push   %edx
  103156:	50                   	push   %eax
  103157:	6a 01                	push   $0x1
  103159:	e8 12 d0 ff ff       	call   100170 <write>
  10315e:	83 c4 10             	add    $0x10,%esp
  103161:	eb 00                	jmp    103163 <testRoundRobinSwithcNb+0x496>
  103163:	8b 5d fc             	mov    -0x4(%ebp),%ebx
  103166:	c9                   	leave  
  103167:	c3                   	ret    

00103168 <testNiceFunctionality>:
  103168:	55                   	push   %ebp
  103169:	89 e5                	mov    %esp,%ebp
  10316b:	53                   	push   %ebx
  10316c:	81 ec a4 01 00 00    	sub    $0x1a4,%esp
  103172:	c7 45 f0 0a 00 00 00 	movl   $0xa,-0x10(%ebp)
  103179:	83 ec 0c             	sub    $0xc,%esp
  10317c:	ff 75 f0             	pushl  -0x10(%ebp)
  10317f:	e8 ea 22 00 00       	call   10546e <zeos_nice>
  103184:	83 c4 10             	add    $0x10,%esp
  103187:	89 45 ec             	mov    %eax,-0x14(%ebp)
  10318a:	8b 45 f0             	mov    -0x10(%ebp),%eax
  10318d:	89 c2                	mov    %eax,%edx
  10318f:	c1 ea 1f             	shr    $0x1f,%edx
  103192:	01 d0                	add    %edx,%eax
  103194:	d1 f8                	sar    %eax
  103196:	89 45 e8             	mov    %eax,-0x18(%ebp)
  103199:	e8 72 cf ff ff       	call   100110 <getpid>
  10319e:	89 45 e4             	mov    %eax,-0x1c(%ebp)
  1031a1:	83 ec 08             	sub    $0x8,%esp
  1031a4:	6a 00                	push   $0x0
  1031a6:	6a 00                	push   $0x0
  1031a8:	e8 26 22 00 00       	call   1053d3 <zeos_sem_init>
  1031ad:	83 c4 10             	add    $0x10,%esp
  1031b0:	83 ec 08             	sub    $0x8,%esp
  1031b3:	6a 00                	push   $0x0
  1031b5:	6a 01                	push   $0x1
  1031b7:	e8 17 22 00 00       	call   1053d3 <zeos_sem_init>
  1031bc:	83 c4 10             	add    $0x10,%esp
  1031bf:	e8 7c cf ff ff       	call   100140 <fork>
  1031c4:	89 45 e0             	mov    %eax,-0x20(%ebp)
  1031c7:	83 7d e0 00          	cmpl   $0x0,-0x20(%ebp)
  1031cb:	79 53                	jns    103220 <testNiceFunctionality+0xb8>
  1031cd:	8b 45 08             	mov    0x8(%ebp),%eax
  1031d0:	c7 80 88 00 00 00 02 	movl   $0x2,0x88(%eax)
  1031d7:	00 00 00 
  1031da:	e8 c1 cf ff ff       	call   1001a0 <perror>
  1031df:	8b 45 08             	mov    0x8(%ebp),%eax
  1031e2:	c7 80 8c 00 00 00 40 	movl   $0x108d40,0x8c(%eax)
  1031e9:	8d 10 00 
  1031ec:	8b 45 08             	mov    0x8(%ebp),%eax
  1031ef:	8b 80 8c 00 00 00    	mov    0x8c(%eax),%eax
  1031f5:	83 ec 0c             	sub    $0xc,%esp
  1031f8:	50                   	push   %eax
  1031f9:	e8 8d 19 00 00       	call   104b8b <proso_strlen>
  1031fe:	83 c4 10             	add    $0x10,%esp
  103201:	89 c2                	mov    %eax,%edx
  103203:	8b 45 08             	mov    0x8(%ebp),%eax
  103206:	8b 80 8c 00 00 00    	mov    0x8c(%eax),%eax
  10320c:	83 ec 04             	sub    $0x4,%esp
  10320f:	52                   	push   %edx
  103210:	50                   	push   %eax
  103211:	6a 01                	push   $0x1
  103213:	e8 58 cf ff ff       	call   100170 <write>
  103218:	83 c4 10             	add    $0x10,%esp
  10321b:	e9 87 03 00 00       	jmp    1035a7 <testNiceFunctionality+0x43f>
  103220:	83 7d e0 00          	cmpl   $0x0,-0x20(%ebp)
  103224:	0f 85 9d 00 00 00    	jne    1032c7 <testNiceFunctionality+0x15f>
  10322a:	83 ec 0c             	sub    $0xc,%esp
  10322d:	ff 75 e8             	pushl  -0x18(%ebp)
  103230:	e8 39 22 00 00       	call   10546e <zeos_nice>
  103235:	83 c4 10             	add    $0x10,%esp
  103238:	83 ec 0c             	sub    $0xc,%esp
  10323b:	6a 01                	push   $0x1
  10323d:	e8 e0 21 00 00       	call   105422 <zeos_sem_signal>
  103242:	83 c4 10             	add    $0x10,%esp
  103245:	83 ec 0c             	sub    $0xc,%esp
  103248:	6a 00                	push   $0x0
  10324a:	e8 f9 21 00 00       	call   105448 <zeos_sem_wait>
  10324f:	83 c4 10             	add    $0x10,%esp
  103252:	c7 45 f4 00 00 00 00 	movl   $0x0,-0xc(%ebp)
  103259:	eb 12                	jmp    10326d <testNiceFunctionality+0x105>
  10325b:	83 ec 0c             	sub    $0xc,%esp
  10325e:	ff 75 ec             	pushl  -0x14(%ebp)
  103261:	e8 1e d0 ff ff       	call   100284 <qtdelay>
  103266:	83 c4 10             	add    $0x10,%esp
  103269:	83 45 f4 01          	addl   $0x1,-0xc(%ebp)
  10326d:	83 7d f4 05          	cmpl   $0x5,-0xc(%ebp)
  103271:	7e e8                	jle    10325b <testNiceFunctionality+0xf3>
  103273:	83 ec 0c             	sub    $0xc,%esp
  103276:	6a 01                	push   $0x1
  103278:	e8 a5 21 00 00       	call   105422 <zeos_sem_signal>
  10327d:	83 c4 10             	add    $0x10,%esp
  103280:	83 ec 0c             	sub    $0xc,%esp
  103283:	6a 00                	push   $0x0
  103285:	e8 be 21 00 00       	call   105448 <zeos_sem_wait>
  10328a:	83 c4 10             	add    $0x10,%esp
  10328d:	83 ec 0c             	sub    $0xc,%esp
  103290:	6a 01                	push   $0x1
  103292:	e8 8b 21 00 00       	call   105422 <zeos_sem_signal>
  103297:	83 c4 10             	add    $0x10,%esp
  10329a:	e8 71 cf ff ff       	call   100210 <exit>
  10329f:	83 ec 0c             	sub    $0xc,%esp
  1032a2:	68 50 8b 10 00       	push   $0x108b50
  1032a7:	e8 df 18 00 00       	call   104b8b <proso_strlen>
  1032ac:	83 c4 10             	add    $0x10,%esp
  1032af:	83 ec 04             	sub    $0x4,%esp
  1032b2:	50                   	push   %eax
  1032b3:	68 50 8b 10 00       	push   $0x108b50
  1032b8:	6a 01                	push   $0x1
  1032ba:	e8 b1 ce ff ff       	call   100170 <write>
  1032bf:	83 c4 10             	add    $0x10,%esp
  1032c2:	e9 c4 02 00 00       	jmp    10358b <testNiceFunctionality+0x423>
  1032c7:	83 ec 0c             	sub    $0xc,%esp
  1032ca:	6a 01                	push   $0x1
  1032cc:	e8 77 21 00 00       	call   105448 <zeos_sem_wait>
  1032d1:	83 c4 10             	add    $0x10,%esp
  1032d4:	83 ec 08             	sub    $0x8,%esp
  1032d7:	8d 45 b8             	lea    -0x48(%ebp),%eax
  1032da:	50                   	push   %eax
  1032db:	ff 75 e0             	pushl  -0x20(%ebp)
  1032de:	e8 fd ce ff ff       	call   1001e0 <get_stats>
  1032e3:	83 c4 10             	add    $0x10,%esp
  1032e6:	89 45 dc             	mov    %eax,-0x24(%ebp)
  1032e9:	83 7d dc 00          	cmpl   $0x0,-0x24(%ebp)
  1032ed:	79 53                	jns    103342 <testNiceFunctionality+0x1da>
  1032ef:	8b 45 08             	mov    0x8(%ebp),%eax
  1032f2:	c7 80 88 00 00 00 02 	movl   $0x2,0x88(%eax)
  1032f9:	00 00 00 
  1032fc:	e8 9f ce ff ff       	call   1001a0 <perror>
  103301:	8b 45 08             	mov    0x8(%ebp),%eax
  103304:	c7 80 8c 00 00 00 cc 	movl   $0x1092cc,0x8c(%eax)
  10330b:	92 10 00 
  10330e:	8b 45 08             	mov    0x8(%ebp),%eax
  103311:	8b 80 8c 00 00 00    	mov    0x8c(%eax),%eax
  103317:	83 ec 0c             	sub    $0xc,%esp
  10331a:	50                   	push   %eax
  10331b:	e8 6b 18 00 00       	call   104b8b <proso_strlen>
  103320:	83 c4 10             	add    $0x10,%esp
  103323:	89 c2                	mov    %eax,%edx
  103325:	8b 45 08             	mov    0x8(%ebp),%eax
  103328:	8b 80 8c 00 00 00    	mov    0x8c(%eax),%eax
  10332e:	83 ec 04             	sub    $0x4,%esp
  103331:	52                   	push   %edx
  103332:	50                   	push   %eax
  103333:	6a 01                	push   $0x1
  103335:	e8 36 ce ff ff       	call   100170 <write>
  10333a:	83 c4 10             	add    $0x10,%esp
  10333d:	e9 4b 02 00 00       	jmp    10358d <testNiceFunctionality+0x425>
  103342:	83 ec 08             	sub    $0x8,%esp
  103345:	8d 45 9c             	lea    -0x64(%ebp),%eax
  103348:	50                   	push   %eax
  103349:	ff 75 e4             	pushl  -0x1c(%ebp)
  10334c:	e8 8f ce ff ff       	call   1001e0 <get_stats>
  103351:	83 c4 10             	add    $0x10,%esp
  103354:	89 45 dc             	mov    %eax,-0x24(%ebp)
  103357:	83 7d dc 00          	cmpl   $0x0,-0x24(%ebp)
  10335b:	79 53                	jns    1033b0 <testNiceFunctionality+0x248>
  10335d:	8b 45 08             	mov    0x8(%ebp),%eax
  103360:	c7 80 88 00 00 00 02 	movl   $0x2,0x88(%eax)
  103367:	00 00 00 
  10336a:	e8 31 ce ff ff       	call   1001a0 <perror>
  10336f:	8b 45 08             	mov    0x8(%ebp),%eax
  103372:	c7 80 8c 00 00 00 f0 	movl   $0x1092f0,0x8c(%eax)
  103379:	92 10 00 
  10337c:	8b 45 08             	mov    0x8(%ebp),%eax
  10337f:	8b 80 8c 00 00 00    	mov    0x8c(%eax),%eax
  103385:	83 ec 0c             	sub    $0xc,%esp
  103388:	50                   	push   %eax
  103389:	e8 fd 17 00 00       	call   104b8b <proso_strlen>
  10338e:	83 c4 10             	add    $0x10,%esp
  103391:	89 c2                	mov    %eax,%edx
  103393:	8b 45 08             	mov    0x8(%ebp),%eax
  103396:	8b 80 8c 00 00 00    	mov    0x8c(%eax),%eax
  10339c:	83 ec 04             	sub    $0x4,%esp
  10339f:	52                   	push   %edx
  1033a0:	50                   	push   %eax
  1033a1:	6a 01                	push   $0x1
  1033a3:	e8 c8 cd ff ff       	call   100170 <write>
  1033a8:	83 c4 10             	add    $0x10,%esp
  1033ab:	e9 dd 01 00 00       	jmp    10358d <testNiceFunctionality+0x425>
  1033b0:	83 ec 0c             	sub    $0xc,%esp
  1033b3:	6a 00                	push   $0x0
  1033b5:	e8 68 20 00 00       	call   105422 <zeos_sem_signal>
  1033ba:	83 c4 10             	add    $0x10,%esp
  1033bd:	c7 45 f4 00 00 00 00 	movl   $0x0,-0xc(%ebp)
  1033c4:	eb 12                	jmp    1033d8 <testNiceFunctionality+0x270>
  1033c6:	83 ec 0c             	sub    $0xc,%esp
  1033c9:	ff 75 ec             	pushl  -0x14(%ebp)
  1033cc:	e8 b3 ce ff ff       	call   100284 <qtdelay>
  1033d1:	83 c4 10             	add    $0x10,%esp
  1033d4:	83 45 f4 01          	addl   $0x1,-0xc(%ebp)
  1033d8:	83 7d f4 05          	cmpl   $0x5,-0xc(%ebp)
  1033dc:	7e e8                	jle    1033c6 <testNiceFunctionality+0x25e>
  1033de:	83 ec 08             	sub    $0x8,%esp
  1033e1:	8d 85 64 ff ff ff    	lea    -0x9c(%ebp),%eax
  1033e7:	50                   	push   %eax
  1033e8:	ff 75 e4             	pushl  -0x1c(%ebp)
  1033eb:	e8 f0 cd ff ff       	call   1001e0 <get_stats>
  1033f0:	83 c4 10             	add    $0x10,%esp
  1033f3:	89 45 dc             	mov    %eax,-0x24(%ebp)
  1033f6:	83 7d dc 00          	cmpl   $0x0,-0x24(%ebp)
  1033fa:	79 53                	jns    10344f <testNiceFunctionality+0x2e7>
  1033fc:	8b 45 08             	mov    0x8(%ebp),%eax
  1033ff:	c7 80 88 00 00 00 02 	movl   $0x2,0x88(%eax)
  103406:	00 00 00 
  103409:	e8 92 cd ff ff       	call   1001a0 <perror>
  10340e:	8b 45 08             	mov    0x8(%ebp),%eax
  103411:	c7 80 8c 00 00 00 f0 	movl   $0x1092f0,0x8c(%eax)
  103418:	92 10 00 
  10341b:	8b 45 08             	mov    0x8(%ebp),%eax
  10341e:	8b 80 8c 00 00 00    	mov    0x8c(%eax),%eax
  103424:	83 ec 0c             	sub    $0xc,%esp
  103427:	50                   	push   %eax
  103428:	e8 5e 17 00 00       	call   104b8b <proso_strlen>
  10342d:	83 c4 10             	add    $0x10,%esp
  103430:	89 c2                	mov    %eax,%edx
  103432:	8b 45 08             	mov    0x8(%ebp),%eax
  103435:	8b 80 8c 00 00 00    	mov    0x8c(%eax),%eax
  10343b:	83 ec 04             	sub    $0x4,%esp
  10343e:	52                   	push   %edx
  10343f:	50                   	push   %eax
  103440:	6a 01                	push   $0x1
  103442:	e8 29 cd ff ff       	call   100170 <write>
  103447:	83 c4 10             	add    $0x10,%esp
  10344a:	e9 4b 01 00 00       	jmp    10359a <testNiceFunctionality+0x432>
  10344f:	83 ec 0c             	sub    $0xc,%esp
  103452:	6a 01                	push   $0x1
  103454:	e8 ef 1f 00 00       	call   105448 <zeos_sem_wait>
  103459:	83 c4 10             	add    $0x10,%esp
  10345c:	83 ec 08             	sub    $0x8,%esp
  10345f:	8d 45 80             	lea    -0x80(%ebp),%eax
  103462:	50                   	push   %eax
  103463:	ff 75 e0             	pushl  -0x20(%ebp)
  103466:	e8 75 cd ff ff       	call   1001e0 <get_stats>
  10346b:	83 c4 10             	add    $0x10,%esp
  10346e:	89 45 dc             	mov    %eax,-0x24(%ebp)
  103471:	83 7d dc 00          	cmpl   $0x0,-0x24(%ebp)
  103475:	79 53                	jns    1034ca <testNiceFunctionality+0x362>
  103477:	8b 45 08             	mov    0x8(%ebp),%eax
  10347a:	c7 80 88 00 00 00 02 	movl   $0x2,0x88(%eax)
  103481:	00 00 00 
  103484:	e8 17 cd ff ff       	call   1001a0 <perror>
  103489:	8b 45 08             	mov    0x8(%ebp),%eax
  10348c:	c7 80 8c 00 00 00 cc 	movl   $0x1092cc,0x8c(%eax)
  103493:	92 10 00 
  103496:	8b 45 08             	mov    0x8(%ebp),%eax
  103499:	8b 80 8c 00 00 00    	mov    0x8c(%eax),%eax
  10349f:	83 ec 0c             	sub    $0xc,%esp
  1034a2:	50                   	push   %eax
  1034a3:	e8 e3 16 00 00       	call   104b8b <proso_strlen>
  1034a8:	83 c4 10             	add    $0x10,%esp
  1034ab:	89 c2                	mov    %eax,%edx
  1034ad:	8b 45 08             	mov    0x8(%ebp),%eax
  1034b0:	8b 80 8c 00 00 00    	mov    0x8c(%eax),%eax
  1034b6:	83 ec 04             	sub    $0x4,%esp
  1034b9:	52                   	push   %edx
  1034ba:	50                   	push   %eax
  1034bb:	6a 01                	push   $0x1
  1034bd:	e8 ae cc ff ff       	call   100170 <write>
  1034c2:	83 c4 10             	add    $0x10,%esp
  1034c5:	e9 d0 00 00 00       	jmp    10359a <testNiceFunctionality+0x432>
  1034ca:	83 ec 0c             	sub    $0xc,%esp
  1034cd:	6a 00                	push   $0x0
  1034cf:	e8 4e 1f 00 00       	call   105422 <zeos_sem_signal>
  1034d4:	83 c4 10             	add    $0x10,%esp
  1034d7:	83 ec 0c             	sub    $0xc,%esp
  1034da:	6a 01                	push   $0x1
  1034dc:	e8 67 1f 00 00       	call   105448 <zeos_sem_wait>
  1034e1:	83 c4 10             	add    $0x10,%esp
  1034e4:	83 ec 0c             	sub    $0xc,%esp
  1034e7:	8d 85 64 ff ff ff    	lea    -0x9c(%ebp),%eax
  1034ed:	50                   	push   %eax
  1034ee:	e8 df 17 00 00       	call   104cd2 <get_cs>
  1034f3:	83 c4 10             	add    $0x10,%esp
  1034f6:	89 c3                	mov    %eax,%ebx
  1034f8:	83 ec 0c             	sub    $0xc,%esp
  1034fb:	8d 45 9c             	lea    -0x64(%ebp),%eax
  1034fe:	50                   	push   %eax
  1034ff:	e8 ce 17 00 00       	call   104cd2 <get_cs>
  103504:	83 c4 10             	add    $0x10,%esp
  103507:	29 c3                	sub    %eax,%ebx
  103509:	89 d8                	mov    %ebx,%eax
  10350b:	89 45 d8             	mov    %eax,-0x28(%ebp)
  10350e:	83 ec 0c             	sub    $0xc,%esp
  103511:	8d 45 80             	lea    -0x80(%ebp),%eax
  103514:	50                   	push   %eax
  103515:	e8 b8 17 00 00       	call   104cd2 <get_cs>
  10351a:	83 c4 10             	add    $0x10,%esp
  10351d:	89 c3                	mov    %eax,%ebx
  10351f:	83 ec 0c             	sub    $0xc,%esp
  103522:	8d 45 b8             	lea    -0x48(%ebp),%eax
  103525:	50                   	push   %eax
  103526:	e8 a7 17 00 00       	call   104cd2 <get_cs>
  10352b:	83 c4 10             	add    $0x10,%esp
  10352e:	29 c3                	sub    %eax,%ebx
  103530:	89 d8                	mov    %ebx,%eax
  103532:	89 45 d4             	mov    %eax,-0x2c(%ebp)
  103535:	8b 45 d4             	mov    -0x2c(%ebp),%eax
  103538:	83 e8 01             	sub    $0x1,%eax
  10353b:	3b 45 d8             	cmp    -0x28(%ebp),%eax
  10353e:	73 4b                	jae    10358b <testNiceFunctionality+0x423>
  103540:	8b 45 08             	mov    0x8(%ebp),%eax
  103543:	c7 80 88 00 00 00 02 	movl   $0x2,0x88(%eax)
  10354a:	00 00 00 
  10354d:	8b 45 08             	mov    0x8(%ebp),%eax
  103550:	c7 80 8c 00 00 00 68 	movl   $0x109368,0x8c(%eax)
  103557:	93 10 00 
  10355a:	8b 45 08             	mov    0x8(%ebp),%eax
  10355d:	8b 80 8c 00 00 00    	mov    0x8c(%eax),%eax
  103563:	83 ec 0c             	sub    $0xc,%esp
  103566:	50                   	push   %eax
  103567:	e8 1f 16 00 00       	call   104b8b <proso_strlen>
  10356c:	83 c4 10             	add    $0x10,%esp
  10356f:	89 c2                	mov    %eax,%edx
  103571:	8b 45 08             	mov    0x8(%ebp),%eax
  103574:	8b 80 8c 00 00 00    	mov    0x8c(%eax),%eax
  10357a:	83 ec 04             	sub    $0x4,%esp
  10357d:	52                   	push   %edx
  10357e:	50                   	push   %eax
  10357f:	6a 01                	push   $0x1
  103581:	e8 ea cb ff ff       	call   100170 <write>
  103586:	83 c4 10             	add    $0x10,%esp
  103589:	eb 1c                	jmp    1035a7 <testNiceFunctionality+0x43f>
  10358b:	eb 1a                	jmp    1035a7 <testNiceFunctionality+0x43f>
  10358d:	83 ec 0c             	sub    $0xc,%esp
  103590:	6a 00                	push   $0x0
  103592:	e8 8b 1e 00 00       	call   105422 <zeos_sem_signal>
  103597:	83 c4 10             	add    $0x10,%esp
  10359a:	83 ec 0c             	sub    $0xc,%esp
  10359d:	6a 00                	push   $0x0
  10359f:	e8 7e 1e 00 00       	call   105422 <zeos_sem_signal>
  1035a4:	83 c4 10             	add    $0x10,%esp
  1035a7:	83 ec 0c             	sub    $0xc,%esp
  1035aa:	ff 75 ec             	pushl  -0x14(%ebp)
  1035ad:	e8 bc 1e 00 00       	call   10546e <zeos_nice>
  1035b2:	83 c4 10             	add    $0x10,%esp
  1035b5:	83 ec 0c             	sub    $0xc,%esp
  1035b8:	6a 00                	push   $0x0
  1035ba:	e8 3d 1e 00 00       	call   1053fc <zeos_sem_destroy>
  1035bf:	83 c4 10             	add    $0x10,%esp
  1035c2:	83 ec 0c             	sub    $0xc,%esp
  1035c5:	6a 01                	push   $0x1
  1035c7:	e8 30 1e 00 00       	call   1053fc <zeos_sem_destroy>
  1035cc:	83 c4 10             	add    $0x10,%esp
  1035cf:	90                   	nop
  1035d0:	8b 5d fc             	mov    -0x4(%ebp),%ebx
  1035d3:	c9                   	leave  
  1035d4:	c3                   	ret    

001035d5 <testExit>:
  1035d5:	55                   	push   %ebp
  1035d6:	89 e5                	mov    %esp,%ebp
  1035d8:	83 ec 18             	sub    $0x18,%esp
  1035db:	e8 60 cb ff ff       	call   100140 <fork>
  1035e0:	89 45 f4             	mov    %eax,-0xc(%ebp)
  1035e3:	83 7d f4 00          	cmpl   $0x0,-0xc(%ebp)
  1035e7:	75 2a                	jne    103613 <testExit+0x3e>
  1035e9:	e8 22 cc ff ff       	call   100210 <exit>
  1035ee:	83 ec 08             	sub    $0x8,%esp
  1035f1:	6a 00                	push   $0x0
  1035f3:	6a 00                	push   $0x0
  1035f5:	e8 d9 1d 00 00       	call   1053d3 <zeos_sem_init>
  1035fa:	83 c4 10             	add    $0x10,%esp
  1035fd:	e8 1a cc ff ff       	call   10021c <delay>
  103602:	83 ec 08             	sub    $0x8,%esp
  103605:	6a 00                	push   $0x0
  103607:	6a 00                	push   $0x0
  103609:	e8 ee 1d 00 00       	call   1053fc <zeos_sem_destroy>
  10360e:	83 c4 10             	add    $0x10,%esp
  103611:	eb fe                	jmp    103611 <testExit+0x3c>
  103613:	83 7d f4 00          	cmpl   $0x0,-0xc(%ebp)
  103617:	79 4b                	jns    103664 <testExit+0x8f>
  103619:	8b 45 08             	mov    0x8(%ebp),%eax
  10361c:	c7 80 88 00 00 00 02 	movl   $0x2,0x88(%eax)
  103623:	00 00 00 
  103626:	8b 45 08             	mov    0x8(%ebp),%eax
  103629:	c7 80 8c 00 00 00 b8 	movl   $0x1093b8,0x8c(%eax)
  103630:	93 10 00 
  103633:	8b 45 08             	mov    0x8(%ebp),%eax
  103636:	8b 80 8c 00 00 00    	mov    0x8c(%eax),%eax
  10363c:	83 ec 0c             	sub    $0xc,%esp
  10363f:	50                   	push   %eax
  103640:	e8 46 15 00 00       	call   104b8b <proso_strlen>
  103645:	83 c4 10             	add    $0x10,%esp
  103648:	89 c2                	mov    %eax,%edx
  10364a:	8b 45 08             	mov    0x8(%ebp),%eax
  10364d:	8b 80 8c 00 00 00    	mov    0x8c(%eax),%eax
  103653:	83 ec 04             	sub    $0x4,%esp
  103656:	52                   	push   %edx
  103657:	50                   	push   %eax
  103658:	6a 01                	push   $0x1
  10365a:	e8 11 cb ff ff       	call   100170 <write>
  10365f:	83 c4 10             	add    $0x10,%esp
  103662:	eb 71                	jmp    1036d5 <testExit+0x100>
  103664:	e8 b3 cb ff ff       	call   10021c <delay>
  103669:	83 ec 08             	sub    $0x8,%esp
  10366c:	6a 00                	push   $0x0
  10366e:	6a 00                	push   $0x0
  103670:	e8 5e 1d 00 00       	call   1053d3 <zeos_sem_init>
  103675:	83 c4 10             	add    $0x10,%esp
  103678:	85 c0                	test   %eax,%eax
  10367a:	79 4b                	jns    1036c7 <testExit+0xf2>
  10367c:	8b 45 08             	mov    0x8(%ebp),%eax
  10367f:	c7 80 8c 00 00 00 e4 	movl   $0x1093e4,0x8c(%eax)
  103686:	93 10 00 
  103689:	8b 45 08             	mov    0x8(%ebp),%eax
  10368c:	8b 80 8c 00 00 00    	mov    0x8c(%eax),%eax
  103692:	83 ec 0c             	sub    $0xc,%esp
  103695:	50                   	push   %eax
  103696:	e8 f0 14 00 00       	call   104b8b <proso_strlen>
  10369b:	83 c4 10             	add    $0x10,%esp
  10369e:	89 c2                	mov    %eax,%edx
  1036a0:	8b 45 08             	mov    0x8(%ebp),%eax
  1036a3:	8b 80 8c 00 00 00    	mov    0x8c(%eax),%eax
  1036a9:	83 ec 04             	sub    $0x4,%esp
  1036ac:	52                   	push   %edx
  1036ad:	50                   	push   %eax
  1036ae:	6a 01                	push   $0x1
  1036b0:	e8 bb ca ff ff       	call   100170 <write>
  1036b5:	83 c4 10             	add    $0x10,%esp
  1036b8:	8b 45 08             	mov    0x8(%ebp),%eax
  1036bb:	c7 80 88 00 00 00 02 	movl   $0x2,0x88(%eax)
  1036c2:	00 00 00 
  1036c5:	eb 0d                	jmp    1036d4 <testExit+0xff>
  1036c7:	83 ec 0c             	sub    $0xc,%esp
  1036ca:	6a 00                	push   $0x0
  1036cc:	e8 2b 1d 00 00       	call   1053fc <zeos_sem_destroy>
  1036d1:	83 c4 10             	add    $0x10,%esp
  1036d4:	90                   	nop
  1036d5:	c9                   	leave  
  1036d6:	c3                   	ret    

001036d7 <testOutOfRangeFork>:
  1036d7:	55                   	push   %ebp
  1036d8:	89 e5                	mov    %esp,%ebp
  1036da:	83 ec 18             	sub    $0x18,%esp
  1036dd:	c7 45 f0 00 00 00 00 	movl   $0x0,-0x10(%ebp)
  1036e4:	83 ec 08             	sub    $0x8,%esp
  1036e7:	6a 00                	push   $0x0
  1036e9:	6a 00                	push   $0x0
  1036eb:	e8 e3 1c 00 00       	call   1053d3 <zeos_sem_init>
  1036f0:	83 c4 10             	add    $0x10,%esp
  1036f3:	e8 48 ca ff ff       	call   100140 <fork>
  1036f8:	89 45 f4             	mov    %eax,-0xc(%ebp)
  1036fb:	eb 0c                	jmp    103709 <testOutOfRangeFork+0x32>
  1036fd:	83 45 f0 01          	addl   $0x1,-0x10(%ebp)
  103701:	e8 3a ca ff ff       	call   100140 <fork>
  103706:	89 45 f4             	mov    %eax,-0xc(%ebp)
  103709:	83 7d f4 00          	cmpl   $0x0,-0xc(%ebp)
  10370d:	7e 06                	jle    103715 <testOutOfRangeFork+0x3e>
  10370f:	83 7d f0 08          	cmpl   $0x8,-0x10(%ebp)
  103713:	7e e8                	jle    1036fd <testOutOfRangeFork+0x26>
  103715:	83 7d f4 00          	cmpl   $0x0,-0xc(%ebp)
  103719:	75 35                	jne    103750 <testOutOfRangeFork+0x79>
  10371b:	83 ec 0c             	sub    $0xc,%esp
  10371e:	6a 00                	push   $0x0
  103720:	e8 23 1d 00 00       	call   105448 <zeos_sem_wait>
  103725:	83 c4 10             	add    $0x10,%esp
  103728:	e8 e3 ca ff ff       	call   100210 <exit>
  10372d:	83 ec 0c             	sub    $0xc,%esp
  103730:	68 50 8b 10 00       	push   $0x108b50
  103735:	e8 51 14 00 00       	call   104b8b <proso_strlen>
  10373a:	83 c4 10             	add    $0x10,%esp
  10373d:	83 ec 04             	sub    $0x4,%esp
  103740:	50                   	push   %eax
  103741:	68 50 8b 10 00       	push   $0x108b50
  103746:	6a 01                	push   $0x1
  103748:	e8 23 ca ff ff       	call   100170 <write>
  10374d:	83 c4 10             	add    $0x10,%esp
  103750:	83 7d f4 00          	cmpl   $0x0,-0xc(%ebp)
  103754:	7e 4b                	jle    1037a1 <testOutOfRangeFork+0xca>
  103756:	8b 45 08             	mov    0x8(%ebp),%eax
  103759:	c7 80 88 00 00 00 02 	movl   $0x2,0x88(%eax)
  103760:	00 00 00 
  103763:	8b 45 08             	mov    0x8(%ebp),%eax
  103766:	c7 80 8c 00 00 00 10 	movl   $0x109410,0x8c(%eax)
  10376d:	94 10 00 
  103770:	8b 45 08             	mov    0x8(%ebp),%eax
  103773:	8b 80 8c 00 00 00    	mov    0x8c(%eax),%eax
  103779:	83 ec 0c             	sub    $0xc,%esp
  10377c:	50                   	push   %eax
  10377d:	e8 09 14 00 00       	call   104b8b <proso_strlen>
  103782:	83 c4 10             	add    $0x10,%esp
  103785:	89 c2                	mov    %eax,%edx
  103787:	8b 45 08             	mov    0x8(%ebp),%eax
  10378a:	8b 80 8c 00 00 00    	mov    0x8c(%eax),%eax
  103790:	83 ec 04             	sub    $0x4,%esp
  103793:	52                   	push   %edx
  103794:	50                   	push   %eax
  103795:	6a 01                	push   $0x1
  103797:	e8 d4 c9 ff ff       	call   100170 <write>
  10379c:	83 c4 10             	add    $0x10,%esp
  10379f:	eb 5d                	jmp    1037fe <testOutOfRangeFork+0x127>
  1037a1:	a1 c4 a4 10 00       	mov    0x10a4c4,%eax
  1037a6:	83 f8 0b             	cmp    $0xb,%eax
  1037a9:	74 53                	je     1037fe <testOutOfRangeFork+0x127>
  1037ab:	a1 c4 a4 10 00       	mov    0x10a4c4,%eax
  1037b0:	83 f8 0c             	cmp    $0xc,%eax
  1037b3:	74 49                	je     1037fe <testOutOfRangeFork+0x127>
  1037b5:	8b 45 08             	mov    0x8(%ebp),%eax
  1037b8:	c7 80 88 00 00 00 01 	movl   $0x1,0x88(%eax)
  1037bf:	00 00 00 
  1037c2:	8b 45 08             	mov    0x8(%ebp),%eax
  1037c5:	c7 80 8c 00 00 00 5c 	movl   $0x10945c,0x8c(%eax)
  1037cc:	94 10 00 
  1037cf:	8b 45 08             	mov    0x8(%ebp),%eax
  1037d2:	8b 80 8c 00 00 00    	mov    0x8c(%eax),%eax
  1037d8:	83 ec 0c             	sub    $0xc,%esp
  1037db:	50                   	push   %eax
  1037dc:	e8 aa 13 00 00       	call   104b8b <proso_strlen>
  1037e1:	83 c4 10             	add    $0x10,%esp
  1037e4:	89 c2                	mov    %eax,%edx
  1037e6:	8b 45 08             	mov    0x8(%ebp),%eax
  1037e9:	8b 80 8c 00 00 00    	mov    0x8c(%eax),%eax
  1037ef:	83 ec 04             	sub    $0x4,%esp
  1037f2:	52                   	push   %edx
  1037f3:	50                   	push   %eax
  1037f4:	6a 01                	push   $0x1
  1037f6:	e8 75 c9 ff ff       	call   100170 <write>
  1037fb:	83 c4 10             	add    $0x10,%esp
  1037fe:	8b 45 f0             	mov    -0x10(%ebp),%eax
  103801:	89 45 ec             	mov    %eax,-0x14(%ebp)
  103804:	eb 16                	jmp    10381c <testOutOfRangeFork+0x145>
  103806:	83 ec 0c             	sub    $0xc,%esp
  103809:	6a 00                	push   $0x0
  10380b:	e8 12 1c 00 00       	call   105422 <zeos_sem_signal>
  103810:	83 c4 10             	add    $0x10,%esp
  103813:	83 6d f0 01          	subl   $0x1,-0x10(%ebp)
  103817:	e8 00 ca ff ff       	call   10021c <delay>
  10381c:	83 7d f0 00          	cmpl   $0x0,-0x10(%ebp)
  103820:	7f e4                	jg     103806 <testOutOfRangeFork+0x12f>
  103822:	83 ec 0c             	sub    $0xc,%esp
  103825:	6a 00                	push   $0x0
  103827:	e8 d0 1b 00 00       	call   1053fc <zeos_sem_destroy>
  10382c:	83 c4 10             	add    $0x10,%esp
  10382f:	8b 45 ec             	mov    -0x14(%ebp),%eax
  103832:	c9                   	leave  
  103833:	c3                   	ret    

00103834 <testForkReuse>:
  103834:	55                   	push   %ebp
  103835:	89 e5                	mov    %esp,%ebp
  103837:	83 ec 18             	sub    $0x18,%esp
  10383a:	83 ec 0c             	sub    $0xc,%esp
  10383d:	ff 75 08             	pushl  0x8(%ebp)
  103840:	e8 92 fe ff ff       	call   1036d7 <testOutOfRangeFork>
  103845:	83 c4 10             	add    $0x10,%esp
  103848:	89 45 f4             	mov    %eax,-0xc(%ebp)
  10384b:	8b 45 08             	mov    0x8(%ebp),%eax
  10384e:	8b 80 88 00 00 00    	mov    0x88(%eax),%eax
  103854:	85 c0                	test   %eax,%eax
  103856:	74 12                	je     10386a <testForkReuse+0x36>
  103858:	8b 45 08             	mov    0x8(%ebp),%eax
  10385b:	8b 80 88 00 00 00    	mov    0x88(%eax),%eax
  103861:	83 f8 01             	cmp    $0x1,%eax
  103864:	0f 85 c1 00 00 00    	jne    10392b <testForkReuse+0xf7>
  10386a:	83 ec 0c             	sub    $0xc,%esp
  10386d:	ff 75 08             	pushl  0x8(%ebp)
  103870:	e8 62 fe ff ff       	call   1036d7 <testOutOfRangeFork>
  103875:	83 c4 10             	add    $0x10,%esp
  103878:	89 45 f0             	mov    %eax,-0x10(%ebp)
  10387b:	8b 45 08             	mov    0x8(%ebp),%eax
  10387e:	8b 80 88 00 00 00    	mov    0x88(%eax),%eax
  103884:	85 c0                	test   %eax,%eax
  103886:	74 0e                	je     103896 <testForkReuse+0x62>
  103888:	8b 45 08             	mov    0x8(%ebp),%eax
  10388b:	8b 80 88 00 00 00    	mov    0x88(%eax),%eax
  103891:	83 f8 01             	cmp    $0x1,%eax
  103894:	75 55                	jne    1038eb <testForkReuse+0xb7>
  103896:	8b 45 f4             	mov    -0xc(%ebp),%eax
  103899:	3b 45 f0             	cmp    -0x10(%ebp),%eax
  10389c:	74 4b                	je     1038e9 <testForkReuse+0xb5>
  10389e:	8b 45 08             	mov    0x8(%ebp),%eax
  1038a1:	c7 80 88 00 00 00 02 	movl   $0x2,0x88(%eax)
  1038a8:	00 00 00 
  1038ab:	8b 45 08             	mov    0x8(%ebp),%eax
  1038ae:	c7 80 8c 00 00 00 b0 	movl   $0x1094b0,0x8c(%eax)
  1038b5:	94 10 00 
  1038b8:	8b 45 08             	mov    0x8(%ebp),%eax
  1038bb:	8b 80 8c 00 00 00    	mov    0x8c(%eax),%eax
  1038c1:	83 ec 0c             	sub    $0xc,%esp
  1038c4:	50                   	push   %eax
  1038c5:	e8 c1 12 00 00       	call   104b8b <proso_strlen>
  1038ca:	83 c4 10             	add    $0x10,%esp
  1038cd:	89 c2                	mov    %eax,%edx
  1038cf:	8b 45 08             	mov    0x8(%ebp),%eax
  1038d2:	8b 80 8c 00 00 00    	mov    0x8c(%eax),%eax
  1038d8:	83 ec 04             	sub    $0x4,%esp
  1038db:	52                   	push   %edx
  1038dc:	50                   	push   %eax
  1038dd:	6a 01                	push   $0x1
  1038df:	e8 8c c8 ff ff       	call   100170 <write>
  1038e4:	83 c4 10             	add    $0x10,%esp
  1038e7:	eb 40                	jmp    103929 <testForkReuse+0xf5>
  1038e9:	eb 3e                	jmp    103929 <testForkReuse+0xf5>
  1038eb:	8b 45 08             	mov    0x8(%ebp),%eax
  1038ee:	c7 80 8c 00 00 00 08 	movl   $0x109508,0x8c(%eax)
  1038f5:	95 10 00 
  1038f8:	8b 45 08             	mov    0x8(%ebp),%eax
  1038fb:	8b 80 8c 00 00 00    	mov    0x8c(%eax),%eax
  103901:	83 ec 0c             	sub    $0xc,%esp
  103904:	50                   	push   %eax
  103905:	e8 81 12 00 00       	call   104b8b <proso_strlen>
  10390a:	83 c4 10             	add    $0x10,%esp
  10390d:	89 c2                	mov    %eax,%edx
  10390f:	8b 45 08             	mov    0x8(%ebp),%eax
  103912:	8b 80 8c 00 00 00    	mov    0x8c(%eax),%eax
  103918:	83 ec 04             	sub    $0x4,%esp
  10391b:	52                   	push   %edx
  10391c:	50                   	push   %eax
  10391d:	6a 01                	push   $0x1
  10391f:	e8 4c c8 ff ff       	call   100170 <write>
  103924:	83 c4 10             	add    $0x10,%esp
  103927:	eb 3e                	jmp    103967 <testForkReuse+0x133>
  103929:	eb 3c                	jmp    103967 <testForkReuse+0x133>
  10392b:	8b 45 08             	mov    0x8(%ebp),%eax
  10392e:	c7 80 8c 00 00 00 40 	movl   $0x109540,0x8c(%eax)
  103935:	95 10 00 
  103938:	8b 45 08             	mov    0x8(%ebp),%eax
  10393b:	8b 80 8c 00 00 00    	mov    0x8c(%eax),%eax
  103941:	83 ec 0c             	sub    $0xc,%esp
  103944:	50                   	push   %eax
  103945:	e8 41 12 00 00       	call   104b8b <proso_strlen>
  10394a:	83 c4 10             	add    $0x10,%esp
  10394d:	89 c2                	mov    %eax,%edx
  10394f:	8b 45 08             	mov    0x8(%ebp),%eax
  103952:	8b 80 8c 00 00 00    	mov    0x8c(%eax),%eax
  103958:	83 ec 04             	sub    $0x4,%esp
  10395b:	52                   	push   %edx
  10395c:	50                   	push   %eax
  10395d:	6a 01                	push   $0x1
  10395f:	e8 0c c8 ff ff       	call   100170 <write>
  103964:	83 c4 10             	add    $0x10,%esp
  103967:	c9                   	leave  
  103968:	c3                   	ret    

00103969 <testCopyGlobalMemory1>:
  103969:	55                   	push   %ebp
  10396a:	89 e5                	mov    %esp,%ebp
  10396c:	83 ec 18             	sub    $0x18,%esp
  10396f:	c7 05 e0 a4 10 00 2b 	movl   $0x22b,0x10a4e0
  103976:	02 00 00 
  103979:	83 ec 08             	sub    $0x8,%esp
  10397c:	6a 00                	push   $0x0
  10397e:	6a 00                	push   $0x0
  103980:	e8 4e 1a 00 00       	call   1053d3 <zeos_sem_init>
  103985:	83 c4 10             	add    $0x10,%esp
  103988:	e8 b3 c7 ff ff       	call   100140 <fork>
  10398d:	89 45 f4             	mov    %eax,-0xc(%ebp)
  103990:	83 7d f4 00          	cmpl   $0x0,-0xc(%ebp)
  103994:	75 6c                	jne    103a02 <testCopyGlobalMemory1+0x99>
  103996:	83 ec 0c             	sub    $0xc,%esp
  103999:	6a 00                	push   $0x0
  10399b:	e8 a8 1a 00 00       	call   105448 <zeos_sem_wait>
  1039a0:	83 c4 10             	add    $0x10,%esp
  1039a3:	a1 e0 a4 10 00       	mov    0x10a4e0,%eax
  1039a8:	3d 2b 02 00 00       	cmp    $0x22b,%eax
  1039ad:	74 4e                	je     1039fd <testCopyGlobalMemory1+0x94>
  1039af:	8b 45 08             	mov    0x8(%ebp),%eax
  1039b2:	c7 80 88 00 00 00 02 	movl   $0x2,0x88(%eax)
  1039b9:	00 00 00 
  1039bc:	8b 45 08             	mov    0x8(%ebp),%eax
  1039bf:	c7 80 8c 00 00 00 90 	movl   $0x109590,0x8c(%eax)
  1039c6:	95 10 00 
  1039c9:	8b 45 08             	mov    0x8(%ebp),%eax
  1039cc:	8b 80 8c 00 00 00    	mov    0x8c(%eax),%eax
  1039d2:	83 ec 0c             	sub    $0xc,%esp
  1039d5:	50                   	push   %eax
  1039d6:	e8 b0 11 00 00       	call   104b8b <proso_strlen>
  1039db:	83 c4 10             	add    $0x10,%esp
  1039de:	89 c2                	mov    %eax,%edx
  1039e0:	8b 45 08             	mov    0x8(%ebp),%eax
  1039e3:	8b 80 8c 00 00 00    	mov    0x8c(%eax),%eax
  1039e9:	83 ec 04             	sub    $0x4,%esp
  1039ec:	52                   	push   %edx
  1039ed:	50                   	push   %eax
  1039ee:	6a 01                	push   $0x1
  1039f0:	e8 7b c7 ff ff       	call   100170 <write>
  1039f5:	83 c4 10             	add    $0x10,%esp
  1039f8:	e9 b4 00 00 00       	jmp    103ab1 <testCopyGlobalMemory1+0x148>
  1039fd:	e9 af 00 00 00       	jmp    103ab1 <testCopyGlobalMemory1+0x148>
  103a02:	83 7d f4 00          	cmpl   $0x0,-0xc(%ebp)
  103a06:	79 5d                	jns    103a65 <testCopyGlobalMemory1+0xfc>
  103a08:	e8 93 c7 ff ff       	call   1001a0 <perror>
  103a0d:	8b 45 08             	mov    0x8(%ebp),%eax
  103a10:	c7 80 88 00 00 00 02 	movl   $0x2,0x88(%eax)
  103a17:	00 00 00 
  103a1a:	8b 45 08             	mov    0x8(%ebp),%eax
  103a1d:	c7 80 8c 00 00 00 c0 	movl   $0x1095c0,0x8c(%eax)
  103a24:	95 10 00 
  103a27:	8b 45 08             	mov    0x8(%ebp),%eax
  103a2a:	8b 80 8c 00 00 00    	mov    0x8c(%eax),%eax
  103a30:	83 ec 0c             	sub    $0xc,%esp
  103a33:	50                   	push   %eax
  103a34:	e8 52 11 00 00       	call   104b8b <proso_strlen>
  103a39:	83 c4 10             	add    $0x10,%esp
  103a3c:	89 c2                	mov    %eax,%edx
  103a3e:	8b 45 08             	mov    0x8(%ebp),%eax
  103a41:	8b 80 8c 00 00 00    	mov    0x8c(%eax),%eax
  103a47:	83 ec 04             	sub    $0x4,%esp
  103a4a:	52                   	push   %edx
  103a4b:	50                   	push   %eax
  103a4c:	6a 01                	push   $0x1
  103a4e:	e8 1d c7 ff ff       	call   100170 <write>
  103a53:	83 c4 10             	add    $0x10,%esp
  103a56:	83 ec 0c             	sub    $0xc,%esp
  103a59:	6a 00                	push   $0x0
  103a5b:	e8 9c 19 00 00       	call   1053fc <zeos_sem_destroy>
  103a60:	83 c4 10             	add    $0x10,%esp
  103a63:	eb 4c                	jmp    103ab1 <testCopyGlobalMemory1+0x148>
  103a65:	c7 05 e0 a4 10 00 09 	movl   $0x309,0x10a4e0
  103a6c:	03 00 00 
  103a6f:	83 ec 0c             	sub    $0xc,%esp
  103a72:	6a 00                	push   $0x0
  103a74:	e8 a9 19 00 00       	call   105422 <zeos_sem_signal>
  103a79:	83 c4 10             	add    $0x10,%esp
  103a7c:	83 ec 0c             	sub    $0xc,%esp
  103a7f:	6a 00                	push   $0x0
  103a81:	e8 76 19 00 00       	call   1053fc <zeos_sem_destroy>
  103a86:	83 c4 10             	add    $0x10,%esp
  103a89:	e8 82 c7 ff ff       	call   100210 <exit>
  103a8e:	83 ec 0c             	sub    $0xc,%esp
  103a91:	68 50 8b 10 00       	push   $0x108b50
  103a96:	e8 f0 10 00 00       	call   104b8b <proso_strlen>
  103a9b:	83 c4 10             	add    $0x10,%esp
  103a9e:	83 ec 04             	sub    $0x4,%esp
  103aa1:	50                   	push   %eax
  103aa2:	68 50 8b 10 00       	push   $0x108b50
  103aa7:	6a 01                	push   $0x1
  103aa9:	e8 c2 c6 ff ff       	call   100170 <write>
  103aae:	83 c4 10             	add    $0x10,%esp
  103ab1:	c9                   	leave  
  103ab2:	c3                   	ret    

00103ab3 <testCopyGlobalMemory2>:
  103ab3:	55                   	push   %ebp
  103ab4:	89 e5                	mov    %esp,%ebp
  103ab6:	83 ec 18             	sub    $0x18,%esp
  103ab9:	c7 05 e0 a4 10 00 2b 	movl   $0x22b,0x10a4e0
  103ac0:	02 00 00 
  103ac3:	83 ec 08             	sub    $0x8,%esp
  103ac6:	6a 00                	push   $0x0
  103ac8:	6a 00                	push   $0x0
  103aca:	e8 04 19 00 00       	call   1053d3 <zeos_sem_init>
  103acf:	83 c4 10             	add    $0x10,%esp
  103ad2:	83 ec 08             	sub    $0x8,%esp
  103ad5:	6a 00                	push   $0x0
  103ad7:	6a 01                	push   $0x1
  103ad9:	e8 f5 18 00 00       	call   1053d3 <zeos_sem_init>
  103ade:	83 c4 10             	add    $0x10,%esp
  103ae1:	e8 5a c6 ff ff       	call   100140 <fork>
  103ae6:	89 45 f4             	mov    %eax,-0xc(%ebp)
  103ae9:	83 7d f4 00          	cmpl   $0x0,-0xc(%ebp)
  103aed:	75 6c                	jne    103b5b <testCopyGlobalMemory2+0xa8>
  103aef:	83 ec 0c             	sub    $0xc,%esp
  103af2:	6a 00                	push   $0x0
  103af4:	e8 4f 19 00 00       	call   105448 <zeos_sem_wait>
  103af9:	83 c4 10             	add    $0x10,%esp
  103afc:	a1 e0 a4 10 00       	mov    0x10a4e0,%eax
  103b01:	3d 2b 02 00 00       	cmp    $0x22b,%eax
  103b06:	74 4e                	je     103b56 <testCopyGlobalMemory2+0xa3>
  103b08:	8b 45 08             	mov    0x8(%ebp),%eax
  103b0b:	c7 80 88 00 00 00 02 	movl   $0x2,0x88(%eax)
  103b12:	00 00 00 
  103b15:	8b 45 08             	mov    0x8(%ebp),%eax
  103b18:	c7 80 8c 00 00 00 e8 	movl   $0x1095e8,0x8c(%eax)
  103b1f:	95 10 00 
  103b22:	8b 45 08             	mov    0x8(%ebp),%eax
  103b25:	8b 80 8c 00 00 00    	mov    0x8c(%eax),%eax
  103b2b:	83 ec 0c             	sub    $0xc,%esp
  103b2e:	50                   	push   %eax
  103b2f:	e8 57 10 00 00       	call   104b8b <proso_strlen>
  103b34:	83 c4 10             	add    $0x10,%esp
  103b37:	89 c2                	mov    %eax,%edx
  103b39:	8b 45 08             	mov    0x8(%ebp),%eax
  103b3c:	8b 80 8c 00 00 00    	mov    0x8c(%eax),%eax
  103b42:	83 ec 04             	sub    $0x4,%esp
  103b45:	52                   	push   %edx
  103b46:	50                   	push   %eax
  103b47:	6a 01                	push   $0x1
  103b49:	e8 22 c6 ff ff       	call   100170 <write>
  103b4e:	83 c4 10             	add    $0x10,%esp
  103b51:	e9 f7 01 00 00       	jmp    103d4d <testCopyGlobalMemory2+0x29a>
  103b56:	e9 f2 01 00 00       	jmp    103d4d <testCopyGlobalMemory2+0x29a>
  103b5b:	83 7d f4 00          	cmpl   $0x0,-0xc(%ebp)
  103b5f:	0f 89 98 00 00 00    	jns    103bfd <testCopyGlobalMemory2+0x14a>
  103b65:	8b 45 08             	mov    0x8(%ebp),%eax
  103b68:	c7 80 88 00 00 00 02 	movl   $0x2,0x88(%eax)
  103b6f:	00 00 00 
  103b72:	8b 45 08             	mov    0x8(%ebp),%eax
  103b75:	c7 80 8c 00 00 00 c0 	movl   $0x1095c0,0x8c(%eax)
  103b7c:	95 10 00 
  103b7f:	8b 45 08             	mov    0x8(%ebp),%eax
  103b82:	8b 80 8c 00 00 00    	mov    0x8c(%eax),%eax
  103b88:	83 ec 0c             	sub    $0xc,%esp
  103b8b:	50                   	push   %eax
  103b8c:	e8 fa 0f 00 00       	call   104b8b <proso_strlen>
  103b91:	83 c4 10             	add    $0x10,%esp
  103b94:	89 c2                	mov    %eax,%edx
  103b96:	8b 45 08             	mov    0x8(%ebp),%eax
  103b99:	8b 80 8c 00 00 00    	mov    0x8c(%eax),%eax
  103b9f:	83 ec 04             	sub    $0x4,%esp
  103ba2:	52                   	push   %edx
  103ba3:	50                   	push   %eax
  103ba4:	6a 01                	push   $0x1
  103ba6:	e8 c5 c5 ff ff       	call   100170 <write>
  103bab:	83 c4 10             	add    $0x10,%esp
  103bae:	83 ec 0c             	sub    $0xc,%esp
  103bb1:	6a 00                	push   $0x0
  103bb3:	e8 6a 18 00 00       	call   105422 <zeos_sem_signal>
  103bb8:	83 c4 10             	add    $0x10,%esp
  103bbb:	83 ec 0c             	sub    $0xc,%esp
  103bbe:	6a 00                	push   $0x0
  103bc0:	e8 37 18 00 00       	call   1053fc <zeos_sem_destroy>
  103bc5:	83 c4 10             	add    $0x10,%esp
  103bc8:	83 ec 0c             	sub    $0xc,%esp
  103bcb:	6a 01                	push   $0x1
  103bcd:	e8 2a 18 00 00       	call   1053fc <zeos_sem_destroy>
  103bd2:	83 c4 10             	add    $0x10,%esp
  103bd5:	e8 36 c6 ff ff       	call   100210 <exit>
  103bda:	83 ec 0c             	sub    $0xc,%esp
  103bdd:	68 50 8b 10 00       	push   $0x108b50
  103be2:	e8 a4 0f 00 00       	call   104b8b <proso_strlen>
  103be7:	83 c4 10             	add    $0x10,%esp
  103bea:	83 ec 04             	sub    $0x4,%esp
  103bed:	50                   	push   %eax
  103bee:	68 50 8b 10 00       	push   $0x108b50
  103bf3:	6a 01                	push   $0x1
  103bf5:	e8 76 c5 ff ff       	call   100170 <write>
  103bfa:	83 c4 10             	add    $0x10,%esp
  103bfd:	e8 3e c5 ff ff       	call   100140 <fork>
  103c02:	89 45 f4             	mov    %eax,-0xc(%ebp)
  103c05:	83 7d f4 00          	cmpl   $0x0,-0xc(%ebp)
  103c09:	75 44                	jne    103c4f <testCopyGlobalMemory2+0x19c>
  103c0b:	c7 05 e0 a4 10 00 e7 	movl   $0x3e7,0x10a4e0
  103c12:	03 00 00 
  103c15:	83 ec 0c             	sub    $0xc,%esp
  103c18:	6a 01                	push   $0x1
  103c1a:	e8 03 18 00 00       	call   105422 <zeos_sem_signal>
  103c1f:	83 c4 10             	add    $0x10,%esp
  103c22:	e8 e9 c5 ff ff       	call   100210 <exit>
  103c27:	83 ec 0c             	sub    $0xc,%esp
  103c2a:	68 50 8b 10 00       	push   $0x108b50
  103c2f:	e8 57 0f 00 00       	call   104b8b <proso_strlen>
  103c34:	83 c4 10             	add    $0x10,%esp
  103c37:	83 ec 04             	sub    $0x4,%esp
  103c3a:	50                   	push   %eax
  103c3b:	68 50 8b 10 00       	push   $0x108b50
  103c40:	6a 01                	push   $0x1
  103c42:	e8 29 c5 ff ff       	call   100170 <write>
  103c47:	83 c4 10             	add    $0x10,%esp
  103c4a:	e9 a2 00 00 00       	jmp    103cf1 <testCopyGlobalMemory2+0x23e>
  103c4f:	83 7d f4 00          	cmpl   $0x0,-0xc(%ebp)
  103c53:	0f 89 98 00 00 00    	jns    103cf1 <testCopyGlobalMemory2+0x23e>
  103c59:	8b 45 08             	mov    0x8(%ebp),%eax
  103c5c:	c7 80 88 00 00 00 02 	movl   $0x2,0x88(%eax)
  103c63:	00 00 00 
  103c66:	8b 45 08             	mov    0x8(%ebp),%eax
  103c69:	c7 80 8c 00 00 00 c0 	movl   $0x1095c0,0x8c(%eax)
  103c70:	95 10 00 
  103c73:	8b 45 08             	mov    0x8(%ebp),%eax
  103c76:	8b 80 8c 00 00 00    	mov    0x8c(%eax),%eax
  103c7c:	83 ec 0c             	sub    $0xc,%esp
  103c7f:	50                   	push   %eax
  103c80:	e8 06 0f 00 00       	call   104b8b <proso_strlen>
  103c85:	83 c4 10             	add    $0x10,%esp
  103c88:	89 c2                	mov    %eax,%edx
  103c8a:	8b 45 08             	mov    0x8(%ebp),%eax
  103c8d:	8b 80 8c 00 00 00    	mov    0x8c(%eax),%eax
  103c93:	83 ec 04             	sub    $0x4,%esp
  103c96:	52                   	push   %edx
  103c97:	50                   	push   %eax
  103c98:	6a 01                	push   $0x1
  103c9a:	e8 d1 c4 ff ff       	call   100170 <write>
  103c9f:	83 c4 10             	add    $0x10,%esp
  103ca2:	83 ec 0c             	sub    $0xc,%esp
  103ca5:	6a 00                	push   $0x0
  103ca7:	e8 76 17 00 00       	call   105422 <zeos_sem_signal>
  103cac:	83 c4 10             	add    $0x10,%esp
  103caf:	83 ec 0c             	sub    $0xc,%esp
  103cb2:	6a 00                	push   $0x0
  103cb4:	e8 43 17 00 00       	call   1053fc <zeos_sem_destroy>
  103cb9:	83 c4 10             	add    $0x10,%esp
  103cbc:	83 ec 0c             	sub    $0xc,%esp
  103cbf:	6a 01                	push   $0x1
  103cc1:	e8 36 17 00 00       	call   1053fc <zeos_sem_destroy>
  103cc6:	83 c4 10             	add    $0x10,%esp
  103cc9:	e8 42 c5 ff ff       	call   100210 <exit>
  103cce:	83 ec 0c             	sub    $0xc,%esp
  103cd1:	68 50 8b 10 00       	push   $0x108b50
  103cd6:	e8 b0 0e 00 00       	call   104b8b <proso_strlen>
  103cdb:	83 c4 10             	add    $0x10,%esp
  103cde:	83 ec 04             	sub    $0x4,%esp
  103ce1:	50                   	push   %eax
  103ce2:	68 50 8b 10 00       	push   $0x108b50
  103ce7:	6a 01                	push   $0x1
  103ce9:	e8 82 c4 ff ff       	call   100170 <write>
  103cee:	83 c4 10             	add    $0x10,%esp
  103cf1:	83 ec 0c             	sub    $0xc,%esp
  103cf4:	6a 01                	push   $0x1
  103cf6:	e8 4d 17 00 00       	call   105448 <zeos_sem_wait>
  103cfb:	83 c4 10             	add    $0x10,%esp
  103cfe:	83 ec 0c             	sub    $0xc,%esp
  103d01:	6a 00                	push   $0x0
  103d03:	e8 1a 17 00 00       	call   105422 <zeos_sem_signal>
  103d08:	83 c4 10             	add    $0x10,%esp
  103d0b:	83 ec 0c             	sub    $0xc,%esp
  103d0e:	6a 00                	push   $0x0
  103d10:	e8 e7 16 00 00       	call   1053fc <zeos_sem_destroy>
  103d15:	83 c4 10             	add    $0x10,%esp
  103d18:	83 ec 0c             	sub    $0xc,%esp
  103d1b:	6a 01                	push   $0x1
  103d1d:	e8 da 16 00 00       	call   1053fc <zeos_sem_destroy>
  103d22:	83 c4 10             	add    $0x10,%esp
  103d25:	e8 e6 c4 ff ff       	call   100210 <exit>
  103d2a:	83 ec 0c             	sub    $0xc,%esp
  103d2d:	68 50 8b 10 00       	push   $0x108b50
  103d32:	e8 54 0e 00 00       	call   104b8b <proso_strlen>
  103d37:	83 c4 10             	add    $0x10,%esp
  103d3a:	83 ec 04             	sub    $0x4,%esp
  103d3d:	50                   	push   %eax
  103d3e:	68 50 8b 10 00       	push   $0x108b50
  103d43:	6a 01                	push   $0x1
  103d45:	e8 26 c4 ff ff       	call   100170 <write>
  103d4a:	83 c4 10             	add    $0x10,%esp
  103d4d:	c9                   	leave  
  103d4e:	c3                   	ret    

00103d4f <testForkHierarchy>:
  103d4f:	55                   	push   %ebp
  103d50:	89 e5                	mov    %esp,%ebp
  103d52:	83 ec 28             	sub    $0x28,%esp
  103d55:	c7 45 f4 00 00 00 00 	movl   $0x0,-0xc(%ebp)
  103d5c:	c7 45 f0 00 00 00 00 	movl   $0x0,-0x10(%ebp)
  103d63:	c7 45 ec 07 00 00 00 	movl   $0x7,-0x14(%ebp)
  103d6a:	e8 a1 c3 ff ff       	call   100110 <getpid>
  103d6f:	89 45 e4             	mov    %eax,-0x1c(%ebp)
  103d72:	83 ec 08             	sub    $0x8,%esp
  103d75:	6a 00                	push   $0x0
  103d77:	6a 00                	push   $0x0
  103d79:	e8 55 16 00 00       	call   1053d3 <zeos_sem_init>
  103d7e:	83 c4 10             	add    $0x10,%esp
  103d81:	89 45 e8             	mov    %eax,-0x18(%ebp)
  103d84:	83 7d e8 00          	cmpl   $0x0,-0x18(%ebp)
  103d88:	79 4e                	jns    103dd8 <testForkHierarchy+0x89>
  103d8a:	8b 45 08             	mov    0x8(%ebp),%eax
  103d8d:	c7 80 88 00 00 00 02 	movl   $0x2,0x88(%eax)
  103d94:	00 00 00 
  103d97:	8b 45 08             	mov    0x8(%ebp),%eax
  103d9a:	c7 80 8c 00 00 00 10 	movl   $0x109610,0x8c(%eax)
  103da1:	96 10 00 
  103da4:	8b 45 08             	mov    0x8(%ebp),%eax
  103da7:	8b 80 8c 00 00 00    	mov    0x8c(%eax),%eax
  103dad:	83 ec 0c             	sub    $0xc,%esp
  103db0:	50                   	push   %eax
  103db1:	e8 d5 0d 00 00       	call   104b8b <proso_strlen>
  103db6:	83 c4 10             	add    $0x10,%esp
  103db9:	89 c2                	mov    %eax,%edx
  103dbb:	8b 45 08             	mov    0x8(%ebp),%eax
  103dbe:	8b 80 8c 00 00 00    	mov    0x8c(%eax),%eax
  103dc4:	83 ec 04             	sub    $0x4,%esp
  103dc7:	52                   	push   %edx
  103dc8:	50                   	push   %eax
  103dc9:	6a 01                	push   $0x1
  103dcb:	e8 a0 c3 ff ff       	call   100170 <write>
  103dd0:	83 c4 10             	add    $0x10,%esp
  103dd3:	e9 99 01 00 00       	jmp    103f71 <testForkHierarchy+0x222>
  103dd8:	eb 0c                	jmp    103de6 <testForkHierarchy+0x97>
  103dda:	e8 61 c3 ff ff       	call   100140 <fork>
  103ddf:	89 45 f4             	mov    %eax,-0xc(%ebp)
  103de2:	83 45 f0 01          	addl   $0x1,-0x10(%ebp)
  103de6:	83 7d f0 02          	cmpl   $0x2,-0x10(%ebp)
  103dea:	7f 06                	jg     103df2 <testForkHierarchy+0xa3>
  103dec:	83 7d f4 00          	cmpl   $0x0,-0xc(%ebp)
  103df0:	79 e8                	jns    103dda <testForkHierarchy+0x8b>
  103df2:	83 7d f4 00          	cmpl   $0x0,-0xc(%ebp)
  103df6:	79 5b                	jns    103e53 <testForkHierarchy+0x104>
  103df8:	8b 45 08             	mov    0x8(%ebp),%eax
  103dfb:	c7 80 88 00 00 00 02 	movl   $0x2,0x88(%eax)
  103e02:	00 00 00 
  103e05:	8b 45 08             	mov    0x8(%ebp),%eax
  103e08:	c7 80 8c 00 00 00 38 	movl   $0x109638,0x8c(%eax)
  103e0f:	96 10 00 
  103e12:	8b 45 08             	mov    0x8(%ebp),%eax
  103e15:	8b 80 8c 00 00 00    	mov    0x8c(%eax),%eax
  103e1b:	83 ec 0c             	sub    $0xc,%esp
  103e1e:	50                   	push   %eax
  103e1f:	e8 67 0d 00 00       	call   104b8b <proso_strlen>
  103e24:	83 c4 10             	add    $0x10,%esp
  103e27:	89 c2                	mov    %eax,%edx
  103e29:	8b 45 08             	mov    0x8(%ebp),%eax
  103e2c:	8b 80 8c 00 00 00    	mov    0x8c(%eax),%eax
  103e32:	83 ec 04             	sub    $0x4,%esp
  103e35:	52                   	push   %edx
  103e36:	50                   	push   %eax
  103e37:	6a 01                	push   $0x1
  103e39:	e8 32 c3 ff ff       	call   100170 <write>
  103e3e:	83 c4 10             	add    $0x10,%esp
  103e41:	83 ec 0c             	sub    $0xc,%esp
  103e44:	6a 00                	push   $0x0
  103e46:	e8 b1 15 00 00       	call   1053fc <zeos_sem_destroy>
  103e4b:	83 c4 10             	add    $0x10,%esp
  103e4e:	e9 1e 01 00 00       	jmp    103f71 <testForkHierarchy+0x222>
  103e53:	e8 b8 c2 ff ff       	call   100110 <getpid>
  103e58:	3b 45 e4             	cmp    -0x1c(%ebp),%eax
  103e5b:	0f 85 db 00 00 00    	jne    103f3c <testForkHierarchy+0x1ed>
  103e61:	c7 45 e8 00 00 00 00 	movl   $0x0,-0x18(%ebp)
  103e68:	eb 63                	jmp    103ecd <testForkHierarchy+0x17e>
  103e6a:	83 ec 0c             	sub    $0xc,%esp
  103e6d:	6a 00                	push   $0x0
  103e6f:	e8 d4 15 00 00       	call   105448 <zeos_sem_wait>
  103e74:	83 c4 10             	add    $0x10,%esp
  103e77:	89 45 e8             	mov    %eax,-0x18(%ebp)
  103e7a:	83 7d e8 00          	cmpl   $0x0,-0x18(%ebp)
  103e7e:	79 49                	jns    103ec9 <testForkHierarchy+0x17a>
  103e80:	8b 45 08             	mov    0x8(%ebp),%eax
  103e83:	c7 80 88 00 00 00 02 	movl   $0x2,0x88(%eax)
  103e8a:	00 00 00 
  103e8d:	8b 45 08             	mov    0x8(%ebp),%eax
  103e90:	c7 80 8c 00 00 00 60 	movl   $0x109660,0x8c(%eax)
  103e97:	96 10 00 
  103e9a:	8b 45 08             	mov    0x8(%ebp),%eax
  103e9d:	8b 80 8c 00 00 00    	mov    0x8c(%eax),%eax
  103ea3:	83 ec 0c             	sub    $0xc,%esp
  103ea6:	50                   	push   %eax
  103ea7:	e8 df 0c 00 00       	call   104b8b <proso_strlen>
  103eac:	83 c4 10             	add    $0x10,%esp
  103eaf:	89 c2                	mov    %eax,%edx
  103eb1:	8b 45 08             	mov    0x8(%ebp),%eax
  103eb4:	8b 80 8c 00 00 00    	mov    0x8c(%eax),%eax
  103eba:	83 ec 04             	sub    $0x4,%esp
  103ebd:	52                   	push   %edx
  103ebe:	50                   	push   %eax
  103ebf:	6a 01                	push   $0x1
  103ec1:	e8 aa c2 ff ff       	call   100170 <write>
  103ec6:	83 c4 10             	add    $0x10,%esp
  103ec9:	83 6d ec 01          	subl   $0x1,-0x14(%ebp)
  103ecd:	83 7d ec 00          	cmpl   $0x0,-0x14(%ebp)
  103ed1:	7e 06                	jle    103ed9 <testForkHierarchy+0x18a>
  103ed3:	83 7d e8 00          	cmpl   $0x0,-0x18(%ebp)
  103ed7:	79 91                	jns    103e6a <testForkHierarchy+0x11b>
  103ed9:	83 ec 0c             	sub    $0xc,%esp
  103edc:	6a 00                	push   $0x0
  103ede:	e8 19 15 00 00       	call   1053fc <zeos_sem_destroy>
  103ee3:	83 c4 10             	add    $0x10,%esp
  103ee6:	89 45 e8             	mov    %eax,-0x18(%ebp)
  103ee9:	83 7d e8 00          	cmpl   $0x0,-0x18(%ebp)
  103eed:	79 4b                	jns    103f3a <testForkHierarchy+0x1eb>
  103eef:	8b 45 08             	mov    0x8(%ebp),%eax
  103ef2:	c7 80 8c 00 00 00 84 	movl   $0x109684,0x8c(%eax)
  103ef9:	96 10 00 
  103efc:	8b 45 08             	mov    0x8(%ebp),%eax
  103eff:	8b 80 8c 00 00 00    	mov    0x8c(%eax),%eax
  103f05:	83 ec 0c             	sub    $0xc,%esp
  103f08:	50                   	push   %eax
  103f09:	e8 7d 0c 00 00       	call   104b8b <proso_strlen>
  103f0e:	83 c4 10             	add    $0x10,%esp
  103f11:	89 c2                	mov    %eax,%edx
  103f13:	8b 45 08             	mov    0x8(%ebp),%eax
  103f16:	8b 80 8c 00 00 00    	mov    0x8c(%eax),%eax
  103f1c:	83 ec 04             	sub    $0x4,%esp
  103f1f:	52                   	push   %edx
